
34_Cmsis_Rtos_Thread.elf:     file format elf32-littlearm

Sections:
Idx Name          Size      VMA       LMA       File off  Algn
  0 .isr_vector   00000194  08000000  08000000  00010000  2**0
                  CONTENTS, ALLOC, LOAD, READONLY, DATA
  1 .text         00004b28  080001a0  080001a0  000101a0  2**4
                  CONTENTS, ALLOC, LOAD, READONLY, CODE
  2 .rodata       0000005c  08004cc8  08004cc8  00014cc8  2**2
                  CONTENTS, ALLOC, LOAD, READONLY, DATA
  3 .ARM.extab    00000000  08004d24  08004d24  00020010  2**0
                  CONTENTS
  4 .ARM          00000008  08004d24  08004d24  00014d24  2**2
                  CONTENTS, ALLOC, LOAD, READONLY, DATA
  5 .preinit_array 00000000  08004d2c  08004d2c  00020010  2**0
                  CONTENTS, ALLOC, LOAD, DATA
  6 .init_array   00000004  08004d2c  08004d2c  00014d2c  2**2
                  CONTENTS, ALLOC, LOAD, DATA
  7 .fini_array   00000004  08004d30  08004d30  00014d30  2**2
                  CONTENTS, ALLOC, LOAD, DATA
  8 .data         00000010  20000000  08004d34  00020000  2**2
                  CONTENTS, ALLOC, LOAD, DATA
  9 .bss          00004a0c  20000010  08004d44  00020010  2**2
                  ALLOC
 10 ._user_heap_stack 00000604  20004a1c  08004d44  00024a1c  2**0
                  ALLOC
 11 .ARM.attributes 00000030  00000000  00000000  00020010  2**0
                  CONTENTS, READONLY
 12 .debug_info   0001a280  00000000  00000000  00020040  2**0
                  CONTENTS, READONLY, DEBUGGING, OCTETS
 13 .debug_abbrev 000030f0  00000000  00000000  0003a2c0  2**0
                  CONTENTS, READONLY, DEBUGGING, OCTETS
 14 .debug_aranges 000013a8  00000000  00000000  0003d3b0  2**3
                  CONTENTS, READONLY, DEBUGGING, OCTETS
 15 .debug_ranges 000012a0  00000000  00000000  0003e758  2**3
                  CONTENTS, READONLY, DEBUGGING, OCTETS
 16 .debug_macro  00003ca3  00000000  00000000  0003f9f8  2**0
                  CONTENTS, READONLY, DEBUGGING, OCTETS
 17 .debug_line   00015032  00000000  00000000  0004369b  2**0
                  CONTENTS, READONLY, DEBUGGING, OCTETS
 18 .debug_str    00097bda  00000000  00000000  000586cd  2**0
                  CONTENTS, READONLY, DEBUGGING, OCTETS
 19 .comment      00000053  00000000  00000000  000f02a7  2**0
                  CONTENTS, READONLY
 20 .debug_frame  00005318  00000000  00000000  000f02fc  2**2
                  CONTENTS, READONLY, DEBUGGING, OCTETS

Disassembly of section .text:

080001a0 <__do_global_dtors_aux>:
 80001a0:	b510      	push	{r4, lr}
 80001a2:	4c05      	ldr	r4, [pc, #20]	; (80001b8 <__do_global_dtors_aux+0x18>)
 80001a4:	7823      	ldrb	r3, [r4, #0]
 80001a6:	b933      	cbnz	r3, 80001b6 <__do_global_dtors_aux+0x16>
 80001a8:	4b04      	ldr	r3, [pc, #16]	; (80001bc <__do_global_dtors_aux+0x1c>)
 80001aa:	b113      	cbz	r3, 80001b2 <__do_global_dtors_aux+0x12>
 80001ac:	4804      	ldr	r0, [pc, #16]	; (80001c0 <__do_global_dtors_aux+0x20>)
 80001ae:	f3af 8000 	nop.w
 80001b2:	2301      	movs	r3, #1
 80001b4:	7023      	strb	r3, [r4, #0]
 80001b6:	bd10      	pop	{r4, pc}
 80001b8:	20000010 	.word	0x20000010
 80001bc:	00000000 	.word	0x00000000
 80001c0:	08004cb0 	.word	0x08004cb0

080001c4 <frame_dummy>:
 80001c4:	b508      	push	{r3, lr}
 80001c6:	4b03      	ldr	r3, [pc, #12]	; (80001d4 <frame_dummy+0x10>)
 80001c8:	b11b      	cbz	r3, 80001d2 <frame_dummy+0xe>
 80001ca:	4903      	ldr	r1, [pc, #12]	; (80001d8 <frame_dummy+0x14>)
 80001cc:	4803      	ldr	r0, [pc, #12]	; (80001dc <frame_dummy+0x18>)
 80001ce:	f3af 8000 	nop.w
 80001d2:	bd08      	pop	{r3, pc}
 80001d4:	00000000 	.word	0x00000000
 80001d8:	20000014 	.word	0x20000014
 80001dc:	08004cb0 	.word	0x08004cb0

080001e0 <__aeabi_uldivmod>:
 80001e0:	b953      	cbnz	r3, 80001f8 <__aeabi_uldivmod+0x18>
 80001e2:	b94a      	cbnz	r2, 80001f8 <__aeabi_uldivmod+0x18>
 80001e4:	2900      	cmp	r1, #0
 80001e6:	bf08      	it	eq
 80001e8:	2800      	cmpeq	r0, #0
 80001ea:	bf1c      	itt	ne
 80001ec:	f04f 31ff 	movne.w	r1, #4294967295
 80001f0:	f04f 30ff 	movne.w	r0, #4294967295
 80001f4:	f000 b96e 	b.w	80004d4 <__aeabi_idiv0>
 80001f8:	f1ad 0c08 	sub.w	ip, sp, #8
 80001fc:	e96d ce04 	strd	ip, lr, [sp, #-16]!
 8000200:	f000 f806 	bl	8000210 <__udivmoddi4>
 8000204:	f8dd e004 	ldr.w	lr, [sp, #4]
 8000208:	e9dd 2302 	ldrd	r2, r3, [sp, #8]
 800020c:	b004      	add	sp, #16
 800020e:	4770      	bx	lr

08000210 <__udivmoddi4>:
 8000210:	e92d 47f0 	stmdb	sp!, {r4, r5, r6, r7, r8, r9, sl, lr}
 8000214:	9d08      	ldr	r5, [sp, #32]
 8000216:	4604      	mov	r4, r0
 8000218:	468c      	mov	ip, r1
 800021a:	2b00      	cmp	r3, #0
 800021c:	f040 8083 	bne.w	8000326 <__udivmoddi4+0x116>
 8000220:	428a      	cmp	r2, r1
 8000222:	4617      	mov	r7, r2
 8000224:	d947      	bls.n	80002b6 <__udivmoddi4+0xa6>
 8000226:	fab2 f282 	clz	r2, r2
 800022a:	b142      	cbz	r2, 800023e <__udivmoddi4+0x2e>
 800022c:	f1c2 0020 	rsb	r0, r2, #32
 8000230:	fa24 f000 	lsr.w	r0, r4, r0
 8000234:	4091      	lsls	r1, r2
 8000236:	4097      	lsls	r7, r2
 8000238:	ea40 0c01 	orr.w	ip, r0, r1
 800023c:	4094      	lsls	r4, r2
 800023e:	ea4f 4817 	mov.w	r8, r7, lsr #16
 8000242:	0c23      	lsrs	r3, r4, #16
 8000244:	fbbc f6f8 	udiv	r6, ip, r8
 8000248:	fa1f fe87 	uxth.w	lr, r7
 800024c:	fb08 c116 	mls	r1, r8, r6, ip
 8000250:	ea43 4301 	orr.w	r3, r3, r1, lsl #16
 8000254:	fb06 f10e 	mul.w	r1, r6, lr
 8000258:	4299      	cmp	r1, r3
 800025a:	d909      	bls.n	8000270 <__udivmoddi4+0x60>
 800025c:	18fb      	adds	r3, r7, r3
 800025e:	f106 30ff 	add.w	r0, r6, #4294967295
 8000262:	f080 8119 	bcs.w	8000498 <__udivmoddi4+0x288>
 8000266:	4299      	cmp	r1, r3
 8000268:	f240 8116 	bls.w	8000498 <__udivmoddi4+0x288>
 800026c:	3e02      	subs	r6, #2
 800026e:	443b      	add	r3, r7
 8000270:	1a5b      	subs	r3, r3, r1
 8000272:	b2a4      	uxth	r4, r4
 8000274:	fbb3 f0f8 	udiv	r0, r3, r8
 8000278:	fb08 3310 	mls	r3, r8, r0, r3
 800027c:	ea44 4403 	orr.w	r4, r4, r3, lsl #16
 8000280:	fb00 fe0e 	mul.w	lr, r0, lr
 8000284:	45a6      	cmp	lr, r4
 8000286:	d909      	bls.n	800029c <__udivmoddi4+0x8c>
 8000288:	193c      	adds	r4, r7, r4
 800028a:	f100 33ff 	add.w	r3, r0, #4294967295
 800028e:	f080 8105 	bcs.w	800049c <__udivmoddi4+0x28c>
 8000292:	45a6      	cmp	lr, r4
 8000294:	f240 8102 	bls.w	800049c <__udivmoddi4+0x28c>
 8000298:	3802      	subs	r0, #2
 800029a:	443c      	add	r4, r7
 800029c:	ea40 4006 	orr.w	r0, r0, r6, lsl #16
 80002a0:	eba4 040e 	sub.w	r4, r4, lr
 80002a4:	2600      	movs	r6, #0
 80002a6:	b11d      	cbz	r5, 80002b0 <__udivmoddi4+0xa0>
 80002a8:	40d4      	lsrs	r4, r2
 80002aa:	2300      	movs	r3, #0
 80002ac:	e9c5 4300 	strd	r4, r3, [r5]
 80002b0:	4631      	mov	r1, r6
 80002b2:	e8bd 87f0 	ldmia.w	sp!, {r4, r5, r6, r7, r8, r9, sl, pc}
 80002b6:	b902      	cbnz	r2, 80002ba <__udivmoddi4+0xaa>
 80002b8:	deff      	udf	#255	; 0xff
 80002ba:	fab2 f282 	clz	r2, r2
 80002be:	2a00      	cmp	r2, #0
 80002c0:	d150      	bne.n	8000364 <__udivmoddi4+0x154>
 80002c2:	1bcb      	subs	r3, r1, r7
 80002c4:	ea4f 4e17 	mov.w	lr, r7, lsr #16
 80002c8:	fa1f f887 	uxth.w	r8, r7
 80002cc:	2601      	movs	r6, #1
 80002ce:	fbb3 fcfe 	udiv	ip, r3, lr
 80002d2:	0c21      	lsrs	r1, r4, #16
 80002d4:	fb0e 331c 	mls	r3, lr, ip, r3
 80002d8:	ea41 4103 	orr.w	r1, r1, r3, lsl #16
 80002dc:	fb08 f30c 	mul.w	r3, r8, ip
 80002e0:	428b      	cmp	r3, r1
 80002e2:	d907      	bls.n	80002f4 <__udivmoddi4+0xe4>
 80002e4:	1879      	adds	r1, r7, r1
 80002e6:	f10c 30ff 	add.w	r0, ip, #4294967295
 80002ea:	d202      	bcs.n	80002f2 <__udivmoddi4+0xe2>
 80002ec:	428b      	cmp	r3, r1
 80002ee:	f200 80e9 	bhi.w	80004c4 <__udivmoddi4+0x2b4>
 80002f2:	4684      	mov	ip, r0
 80002f4:	1ac9      	subs	r1, r1, r3
 80002f6:	b2a3      	uxth	r3, r4
 80002f8:	fbb1 f0fe 	udiv	r0, r1, lr
 80002fc:	fb0e 1110 	mls	r1, lr, r0, r1
 8000300:	ea43 4401 	orr.w	r4, r3, r1, lsl #16
 8000304:	fb08 f800 	mul.w	r8, r8, r0
 8000308:	45a0      	cmp	r8, r4
 800030a:	d907      	bls.n	800031c <__udivmoddi4+0x10c>
 800030c:	193c      	adds	r4, r7, r4
 800030e:	f100 33ff 	add.w	r3, r0, #4294967295
 8000312:	d202      	bcs.n	800031a <__udivmoddi4+0x10a>
 8000314:	45a0      	cmp	r8, r4
 8000316:	f200 80d9 	bhi.w	80004cc <__udivmoddi4+0x2bc>
 800031a:	4618      	mov	r0, r3
 800031c:	eba4 0408 	sub.w	r4, r4, r8
 8000320:	ea40 400c 	orr.w	r0, r0, ip, lsl #16
 8000324:	e7bf      	b.n	80002a6 <__udivmoddi4+0x96>
 8000326:	428b      	cmp	r3, r1
 8000328:	d909      	bls.n	800033e <__udivmoddi4+0x12e>
 800032a:	2d00      	cmp	r5, #0
 800032c:	f000 80b1 	beq.w	8000492 <__udivmoddi4+0x282>
 8000330:	2600      	movs	r6, #0
 8000332:	e9c5 0100 	strd	r0, r1, [r5]
 8000336:	4630      	mov	r0, r6
 8000338:	4631      	mov	r1, r6
 800033a:	e8bd 87f0 	ldmia.w	sp!, {r4, r5, r6, r7, r8, r9, sl, pc}
 800033e:	fab3 f683 	clz	r6, r3
 8000342:	2e00      	cmp	r6, #0
 8000344:	d14a      	bne.n	80003dc <__udivmoddi4+0x1cc>
 8000346:	428b      	cmp	r3, r1
 8000348:	d302      	bcc.n	8000350 <__udivmoddi4+0x140>
 800034a:	4282      	cmp	r2, r0
 800034c:	f200 80b8 	bhi.w	80004c0 <__udivmoddi4+0x2b0>
 8000350:	1a84      	subs	r4, r0, r2
 8000352:	eb61 0103 	sbc.w	r1, r1, r3
 8000356:	2001      	movs	r0, #1
 8000358:	468c      	mov	ip, r1
 800035a:	2d00      	cmp	r5, #0
 800035c:	d0a8      	beq.n	80002b0 <__udivmoddi4+0xa0>
 800035e:	e9c5 4c00 	strd	r4, ip, [r5]
 8000362:	e7a5      	b.n	80002b0 <__udivmoddi4+0xa0>
 8000364:	f1c2 0320 	rsb	r3, r2, #32
 8000368:	fa20 f603 	lsr.w	r6, r0, r3
 800036c:	4097      	lsls	r7, r2
 800036e:	fa01 f002 	lsl.w	r0, r1, r2
 8000372:	ea4f 4e17 	mov.w	lr, r7, lsr #16
 8000376:	40d9      	lsrs	r1, r3
 8000378:	4330      	orrs	r0, r6
 800037a:	0c03      	lsrs	r3, r0, #16
 800037c:	fbb1 f6fe 	udiv	r6, r1, lr
 8000380:	fa1f f887 	uxth.w	r8, r7
 8000384:	fb0e 1116 	mls	r1, lr, r6, r1
 8000388:	ea43 4301 	orr.w	r3, r3, r1, lsl #16
 800038c:	fb06 f108 	mul.w	r1, r6, r8
 8000390:	4299      	cmp	r1, r3
 8000392:	fa04 f402 	lsl.w	r4, r4, r2
 8000396:	d909      	bls.n	80003ac <__udivmoddi4+0x19c>
 8000398:	18fb      	adds	r3, r7, r3
 800039a:	f106 3cff 	add.w	ip, r6, #4294967295
 800039e:	f080 808d 	bcs.w	80004bc <__udivmoddi4+0x2ac>
 80003a2:	4299      	cmp	r1, r3
 80003a4:	f240 808a 	bls.w	80004bc <__udivmoddi4+0x2ac>
 80003a8:	3e02      	subs	r6, #2
 80003aa:	443b      	add	r3, r7
 80003ac:	1a5b      	subs	r3, r3, r1
 80003ae:	b281      	uxth	r1, r0
 80003b0:	fbb3 f0fe 	udiv	r0, r3, lr
 80003b4:	fb0e 3310 	mls	r3, lr, r0, r3
 80003b8:	ea41 4103 	orr.w	r1, r1, r3, lsl #16
 80003bc:	fb00 f308 	mul.w	r3, r0, r8
 80003c0:	428b      	cmp	r3, r1
 80003c2:	d907      	bls.n	80003d4 <__udivmoddi4+0x1c4>
 80003c4:	1879      	adds	r1, r7, r1
 80003c6:	f100 3cff 	add.w	ip, r0, #4294967295
 80003ca:	d273      	bcs.n	80004b4 <__udivmoddi4+0x2a4>
 80003cc:	428b      	cmp	r3, r1
 80003ce:	d971      	bls.n	80004b4 <__udivmoddi4+0x2a4>
 80003d0:	3802      	subs	r0, #2
 80003d2:	4439      	add	r1, r7
 80003d4:	1acb      	subs	r3, r1, r3
 80003d6:	ea40 4606 	orr.w	r6, r0, r6, lsl #16
 80003da:	e778      	b.n	80002ce <__udivmoddi4+0xbe>
 80003dc:	f1c6 0c20 	rsb	ip, r6, #32
 80003e0:	fa03 f406 	lsl.w	r4, r3, r6
 80003e4:	fa22 f30c 	lsr.w	r3, r2, ip
 80003e8:	431c      	orrs	r4, r3
 80003ea:	fa20 f70c 	lsr.w	r7, r0, ip
 80003ee:	fa01 f306 	lsl.w	r3, r1, r6
 80003f2:	ea4f 4e14 	mov.w	lr, r4, lsr #16
 80003f6:	fa21 f10c 	lsr.w	r1, r1, ip
 80003fa:	431f      	orrs	r7, r3
 80003fc:	0c3b      	lsrs	r3, r7, #16
 80003fe:	fbb1 f9fe 	udiv	r9, r1, lr
 8000402:	fa1f f884 	uxth.w	r8, r4
 8000406:	fb0e 1119 	mls	r1, lr, r9, r1
 800040a:	ea43 4101 	orr.w	r1, r3, r1, lsl #16
 800040e:	fb09 fa08 	mul.w	sl, r9, r8
 8000412:	458a      	cmp	sl, r1
 8000414:	fa02 f206 	lsl.w	r2, r2, r6
 8000418:	fa00 f306 	lsl.w	r3, r0, r6
 800041c:	d908      	bls.n	8000430 <__udivmoddi4+0x220>
 800041e:	1861      	adds	r1, r4, r1
 8000420:	f109 30ff 	add.w	r0, r9, #4294967295
 8000424:	d248      	bcs.n	80004b8 <__udivmoddi4+0x2a8>
 8000426:	458a      	cmp	sl, r1
 8000428:	d946      	bls.n	80004b8 <__udivmoddi4+0x2a8>
 800042a:	f1a9 0902 	sub.w	r9, r9, #2
 800042e:	4421      	add	r1, r4
 8000430:	eba1 010a 	sub.w	r1, r1, sl
 8000434:	b2bf      	uxth	r7, r7
 8000436:	fbb1 f0fe 	udiv	r0, r1, lr
 800043a:	fb0e 1110 	mls	r1, lr, r0, r1
 800043e:	ea47 4701 	orr.w	r7, r7, r1, lsl #16
 8000442:	fb00 f808 	mul.w	r8, r0, r8
 8000446:	45b8      	cmp	r8, r7
 8000448:	d907      	bls.n	800045a <__udivmoddi4+0x24a>
 800044a:	19e7      	adds	r7, r4, r7
 800044c:	f100 31ff 	add.w	r1, r0, #4294967295
 8000450:	d22e      	bcs.n	80004b0 <__udivmoddi4+0x2a0>
 8000452:	45b8      	cmp	r8, r7
 8000454:	d92c      	bls.n	80004b0 <__udivmoddi4+0x2a0>
 8000456:	3802      	subs	r0, #2
 8000458:	4427      	add	r7, r4
 800045a:	ea40 4009 	orr.w	r0, r0, r9, lsl #16
 800045e:	eba7 0708 	sub.w	r7, r7, r8
 8000462:	fba0 8902 	umull	r8, r9, r0, r2
 8000466:	454f      	cmp	r7, r9
 8000468:	46c6      	mov	lr, r8
 800046a:	4649      	mov	r1, r9
 800046c:	d31a      	bcc.n	80004a4 <__udivmoddi4+0x294>
 800046e:	d017      	beq.n	80004a0 <__udivmoddi4+0x290>
 8000470:	b15d      	cbz	r5, 800048a <__udivmoddi4+0x27a>
 8000472:	ebb3 020e 	subs.w	r2, r3, lr
 8000476:	eb67 0701 	sbc.w	r7, r7, r1
 800047a:	fa07 fc0c 	lsl.w	ip, r7, ip
 800047e:	40f2      	lsrs	r2, r6
 8000480:	ea4c 0202 	orr.w	r2, ip, r2
 8000484:	40f7      	lsrs	r7, r6
 8000486:	e9c5 2700 	strd	r2, r7, [r5]
 800048a:	2600      	movs	r6, #0
 800048c:	4631      	mov	r1, r6
 800048e:	e8bd 87f0 	ldmia.w	sp!, {r4, r5, r6, r7, r8, r9, sl, pc}
 8000492:	462e      	mov	r6, r5
 8000494:	4628      	mov	r0, r5
 8000496:	e70b      	b.n	80002b0 <__udivmoddi4+0xa0>
 8000498:	4606      	mov	r6, r0
 800049a:	e6e9      	b.n	8000270 <__udivmoddi4+0x60>
 800049c:	4618      	mov	r0, r3
 800049e:	e6fd      	b.n	800029c <__udivmoddi4+0x8c>
 80004a0:	4543      	cmp	r3, r8
 80004a2:	d2e5      	bcs.n	8000470 <__udivmoddi4+0x260>
 80004a4:	ebb8 0e02 	subs.w	lr, r8, r2
 80004a8:	eb69 0104 	sbc.w	r1, r9, r4
 80004ac:	3801      	subs	r0, #1
 80004ae:	e7df      	b.n	8000470 <__udivmoddi4+0x260>
 80004b0:	4608      	mov	r0, r1
 80004b2:	e7d2      	b.n	800045a <__udivmoddi4+0x24a>
 80004b4:	4660      	mov	r0, ip
 80004b6:	e78d      	b.n	80003d4 <__udivmoddi4+0x1c4>
 80004b8:	4681      	mov	r9, r0
 80004ba:	e7b9      	b.n	8000430 <__udivmoddi4+0x220>
 80004bc:	4666      	mov	r6, ip
 80004be:	e775      	b.n	80003ac <__udivmoddi4+0x19c>
 80004c0:	4630      	mov	r0, r6
 80004c2:	e74a      	b.n	800035a <__udivmoddi4+0x14a>
 80004c4:	f1ac 0c02 	sub.w	ip, ip, #2
 80004c8:	4439      	add	r1, r7
 80004ca:	e713      	b.n	80002f4 <__udivmoddi4+0xe4>
 80004cc:	3802      	subs	r0, #2
 80004ce:	443c      	add	r4, r7
 80004d0:	e724      	b.n	800031c <__udivmoddi4+0x10c>
 80004d2:	bf00      	nop

080004d4 <__aeabi_idiv0>:
 80004d4:	4770      	bx	lr
 80004d6:	bf00      	nop

080004d8 <main>:
void vOrangeLedControllerTask(void *pvParameters);
void vGreenLedControllerTask(void *pvParameters);


int main(void)
{
 80004d8:	b580      	push	{r7, lr}
 80004da:	b0a4      	sub	sp, #144	; 0x90
 80004dc:	af00      	add	r7, sp, #0
  /*Reset of all peripherals, Initializes the Flash interface and the Systick.*/
  HAL_Init();
 80004de:	f000 fab3 	bl	8000a48 <HAL_Init>

  /* Configure the system clock */
  SystemClock_Config();
 80004e2:	f000 f8cd 	bl	8000680 <SystemClock_Config>

  /* Initialize all configured peripherals */
  MX_GPIO_Init();
 80004e6:	f000 f955 	bl	8000794 <MX_GPIO_Init>
  MX_USART2_UART_Init();
 80004ea:	f000 f929 	bl	8000740 <MX_USART2_UART_Init>

  /*Initializing Kernel*/
  osKernelInitialize();
 80004ee:	f001 fea7 	bl	8002240 <osKernelInitialize>

  /*Data structures to create the threads*/
  osThreadAttr_t greenThreadAtrribs =
 80004f2:	f107 036c 	add.w	r3, r7, #108	; 0x6c
 80004f6:	2224      	movs	r2, #36	; 0x24
 80004f8:	2100      	movs	r1, #0
 80004fa:	4618      	mov	r0, r3
 80004fc:	f004 fbd0 	bl	8004ca0 <memset>
 8000500:	4b27      	ldr	r3, [pc, #156]	; (80005a0 <main+0xc8>)
 8000502:	66fb      	str	r3, [r7, #108]	; 0x6c
 8000504:	f44f 7300 	mov.w	r3, #512	; 0x200
 8000508:	f8c7 3080 	str.w	r3, [r7, #128]	; 0x80
 800050c:	2318      	movs	r3, #24
 800050e:	f8c7 3084 	str.w	r3, [r7, #132]	; 0x84
		  .name = "GreenTask",
		  .stack_size = STACK_SIZE,
		  .priority = osPriorityNormal
  };

  osThreadAttr_t redThreadAtrribs =
 8000512:	f107 0348 	add.w	r3, r7, #72	; 0x48
 8000516:	2224      	movs	r2, #36	; 0x24
 8000518:	2100      	movs	r1, #0
 800051a:	4618      	mov	r0, r3
 800051c:	f004 fbc0 	bl	8004ca0 <memset>
 8000520:	4b20      	ldr	r3, [pc, #128]	; (80005a4 <main+0xcc>)
 8000522:	64bb      	str	r3, [r7, #72]	; 0x48
 8000524:	f44f 7300 	mov.w	r3, #512	; 0x200
 8000528:	65fb      	str	r3, [r7, #92]	; 0x5c
 800052a:	2318      	movs	r3, #24
 800052c:	663b      	str	r3, [r7, #96]	; 0x60
		  .name = "RedTask",
		  .stack_size = STACK_SIZE,
		  .priority = osPriorityNormal
  };

  osThreadAttr_t orangeThreadAtrribs =
 800052e:	f107 0324 	add.w	r3, r7, #36	; 0x24
 8000532:	2224      	movs	r2, #36	; 0x24
 8000534:	2100      	movs	r1, #0
 8000536:	4618      	mov	r0, r3
 8000538:	f004 fbb2 	bl	8004ca0 <memset>
 800053c:	4b1a      	ldr	r3, [pc, #104]	; (80005a8 <main+0xd0>)
 800053e:	627b      	str	r3, [r7, #36]	; 0x24
 8000540:	f44f 7300 	mov.w	r3, #512	; 0x200
 8000544:	63bb      	str	r3, [r7, #56]	; 0x38
 8000546:	2318      	movs	r3, #24
 8000548:	63fb      	str	r3, [r7, #60]	; 0x3c
		  .name = "OrangeTask",
		  .stack_size = STACK_SIZE,
		  .priority = osPriorityNormal
  };

  osThreadAttr_t blueThreadAtrribs =
 800054a:	463b      	mov	r3, r7
 800054c:	2224      	movs	r2, #36	; 0x24
 800054e:	2100      	movs	r1, #0
 8000550:	4618      	mov	r0, r3
 8000552:	f004 fba5 	bl	8004ca0 <memset>
 8000556:	4b15      	ldr	r3, [pc, #84]	; (80005ac <main+0xd4>)
 8000558:	603b      	str	r3, [r7, #0]
 800055a:	f44f 7300 	mov.w	r3, #512	; 0x200
 800055e:	617b      	str	r3, [r7, #20]
 8000560:	2318      	movs	r3, #24
 8000562:	61bb      	str	r3, [r7, #24]
		  .stack_size = STACK_SIZE,
		  .priority = osPriorityNormal
  };

  /*Create a threads (tasks)*/
  osThreadNew(vGreenLedControllerTask, NULL, &greenThreadAtrribs);
 8000564:	f107 036c 	add.w	r3, r7, #108	; 0x6c
 8000568:	461a      	mov	r2, r3
 800056a:	2100      	movs	r1, #0
 800056c:	4810      	ldr	r0, [pc, #64]	; (80005b0 <main+0xd8>)
 800056e:	f001 feb1 	bl	80022d4 <osThreadNew>
  osThreadNew(vRedLedControllerTask, NULL, &redThreadAtrribs);
 8000572:	f107 0348 	add.w	r3, r7, #72	; 0x48
 8000576:	461a      	mov	r2, r3
 8000578:	2100      	movs	r1, #0
 800057a:	480e      	ldr	r0, [pc, #56]	; (80005b4 <main+0xdc>)
 800057c:	f001 feaa 	bl	80022d4 <osThreadNew>
  osThreadNew(vOrangeLedControllerTask, NULL, &orangeThreadAtrribs);
 8000580:	f107 0324 	add.w	r3, r7, #36	; 0x24
 8000584:	461a      	mov	r2, r3
 8000586:	2100      	movs	r1, #0
 8000588:	480b      	ldr	r0, [pc, #44]	; (80005b8 <main+0xe0>)
 800058a:	f001 fea3 	bl	80022d4 <osThreadNew>
  osThreadNew(vBlueLedControllerTask, NULL, &blueThreadAtrribs);
 800058e:	463b      	mov	r3, r7
 8000590:	461a      	mov	r2, r3
 8000592:	2100      	movs	r1, #0
 8000594:	4809      	ldr	r0, [pc, #36]	; (80005bc <main+0xe4>)
 8000596:	f001 fe9d 	bl	80022d4 <osThreadNew>

  /*Create a kernel (start the scheduler)*/
  osKernelStart();
 800059a:	f001 fe75 	bl	8002288 <osKernelStart>


  while (1)
 800059e:	e7fe      	b.n	800059e <main+0xc6>
 80005a0:	08004cc8 	.word	0x08004cc8
 80005a4:	08004cd4 	.word	0x08004cd4
 80005a8:	08004cdc 	.word	0x08004cdc
 80005ac:	08004ce8 	.word	0x08004ce8
 80005b0:	08000621 	.word	0x08000621
 80005b4:	080005f1 	.word	0x080005f1
 80005b8:	08000651 	.word	0x08000651
 80005bc:	080005c1 	.word	0x080005c1

080005c0 <vBlueLedControllerTask>:

/**
 * @brief Task function to control a blue led
 */
void vBlueLedControllerTask(void *pvParameters)
{
 80005c0:	b480      	push	{r7}
 80005c2:	b085      	sub	sp, #20
 80005c4:	af00      	add	r7, sp, #0
 80005c6:	6078      	str	r0, [r7, #4]
	while(1)
	{
		blueTaskProfiler++;
 80005c8:	4b07      	ldr	r3, [pc, #28]	; (80005e8 <vBlueLedControllerTask+0x28>)
 80005ca:	681b      	ldr	r3, [r3, #0]
 80005cc:	3301      	adds	r3, #1
 80005ce:	4a06      	ldr	r2, [pc, #24]	; (80005e8 <vBlueLedControllerTask+0x28>)
 80005d0:	6013      	str	r3, [r2, #0]
		for(int i=0; i<=100000; i++){}
 80005d2:	2300      	movs	r3, #0
 80005d4:	60fb      	str	r3, [r7, #12]
 80005d6:	e002      	b.n	80005de <vBlueLedControllerTask+0x1e>
 80005d8:	68fb      	ldr	r3, [r7, #12]
 80005da:	3301      	adds	r3, #1
 80005dc:	60fb      	str	r3, [r7, #12]
 80005de:	68fb      	ldr	r3, [r7, #12]
 80005e0:	4a02      	ldr	r2, [pc, #8]	; (80005ec <vBlueLedControllerTask+0x2c>)
 80005e2:	4293      	cmp	r3, r2
 80005e4:	ddf8      	ble.n	80005d8 <vBlueLedControllerTask+0x18>
		blueTaskProfiler++;
 80005e6:	e7ef      	b.n	80005c8 <vBlueLedControllerTask+0x8>
 80005e8:	2000498c 	.word	0x2000498c
 80005ec:	000186a0 	.word	0x000186a0

080005f0 <vRedLedControllerTask>:

/**
 * @brief Task function to control a red led
 */
void vRedLedControllerTask(void *pvParameters)
{
 80005f0:	b480      	push	{r7}
 80005f2:	b085      	sub	sp, #20
 80005f4:	af00      	add	r7, sp, #0
 80005f6:	6078      	str	r0, [r7, #4]
	while(1)
	{
		redTaskProfiler++;
 80005f8:	4b07      	ldr	r3, [pc, #28]	; (8000618 <vRedLedControllerTask+0x28>)
 80005fa:	681b      	ldr	r3, [r3, #0]
 80005fc:	3301      	adds	r3, #1
 80005fe:	4a06      	ldr	r2, [pc, #24]	; (8000618 <vRedLedControllerTask+0x28>)
 8000600:	6013      	str	r3, [r2, #0]
		for(int i=0; i<=100000; i++){}
 8000602:	2300      	movs	r3, #0
 8000604:	60fb      	str	r3, [r7, #12]
 8000606:	e002      	b.n	800060e <vRedLedControllerTask+0x1e>
 8000608:	68fb      	ldr	r3, [r7, #12]
 800060a:	3301      	adds	r3, #1
 800060c:	60fb      	str	r3, [r7, #12]
 800060e:	68fb      	ldr	r3, [r7, #12]
 8000610:	4a02      	ldr	r2, [pc, #8]	; (800061c <vRedLedControllerTask+0x2c>)
 8000612:	4293      	cmp	r3, r2
 8000614:	ddf8      	ble.n	8000608 <vRedLedControllerTask+0x18>
		redTaskProfiler++;
 8000616:	e7ef      	b.n	80005f8 <vRedLedControllerTask+0x8>
 8000618:	2000493c 	.word	0x2000493c
 800061c:	000186a0 	.word	0x000186a0

08000620 <vGreenLedControllerTask>:

/**
 * @brief Task function to control a green led
 */
void vGreenLedControllerTask(void *pvParameters)
{
 8000620:	b480      	push	{r7}
 8000622:	b085      	sub	sp, #20
 8000624:	af00      	add	r7, sp, #0
 8000626:	6078      	str	r0, [r7, #4]
	while(1)
	{
		greenTaskProfiler++;
 8000628:	4b07      	ldr	r3, [pc, #28]	; (8000648 <vGreenLedControllerTask+0x28>)
 800062a:	681b      	ldr	r3, [r3, #0]
 800062c:	3301      	adds	r3, #1
 800062e:	4a06      	ldr	r2, [pc, #24]	; (8000648 <vGreenLedControllerTask+0x28>)
 8000630:	6013      	str	r3, [r2, #0]
		for(int i=0; i<=100000; i++){}
 8000632:	2300      	movs	r3, #0
 8000634:	60fb      	str	r3, [r7, #12]
 8000636:	e002      	b.n	800063e <vGreenLedControllerTask+0x1e>
 8000638:	68fb      	ldr	r3, [r7, #12]
 800063a:	3301      	adds	r3, #1
 800063c:	60fb      	str	r3, [r7, #12]
 800063e:	68fb      	ldr	r3, [r7, #12]
 8000640:	4a02      	ldr	r2, [pc, #8]	; (800064c <vGreenLedControllerTask+0x2c>)
 8000642:	4293      	cmp	r3, r2
 8000644:	ddf8      	ble.n	8000638 <vGreenLedControllerTask+0x18>
		greenTaskProfiler++;
 8000646:	e7ef      	b.n	8000628 <vGreenLedControllerTask+0x8>
 8000648:	20004944 	.word	0x20004944
 800064c:	000186a0 	.word	0x000186a0

08000650 <vOrangeLedControllerTask>:

/**
 * @brief Task function to control a orange led
 */
void vOrangeLedControllerTask(void *pvParameters)
{
 8000650:	b480      	push	{r7}
 8000652:	b085      	sub	sp, #20
 8000654:	af00      	add	r7, sp, #0
 8000656:	6078      	str	r0, [r7, #4]
	while(1)
	{
		orangeTaskProfiler++;
 8000658:	4b07      	ldr	r3, [pc, #28]	; (8000678 <vOrangeLedControllerTask+0x28>)
 800065a:	681b      	ldr	r3, [r3, #0]
 800065c:	3301      	adds	r3, #1
 800065e:	4a06      	ldr	r2, [pc, #24]	; (8000678 <vOrangeLedControllerTask+0x28>)
 8000660:	6013      	str	r3, [r2, #0]
		for(int i=0; i<=100000; i++){}
 8000662:	2300      	movs	r3, #0
 8000664:	60fb      	str	r3, [r7, #12]
 8000666:	e002      	b.n	800066e <vOrangeLedControllerTask+0x1e>
 8000668:	68fb      	ldr	r3, [r7, #12]
 800066a:	3301      	adds	r3, #1
 800066c:	60fb      	str	r3, [r7, #12]
 800066e:	68fb      	ldr	r3, [r7, #12]
 8000670:	4a02      	ldr	r2, [pc, #8]	; (800067c <vOrangeLedControllerTask+0x2c>)
 8000672:	4293      	cmp	r3, r2
 8000674:	ddf8      	ble.n	8000668 <vOrangeLedControllerTask+0x18>
		orangeTaskProfiler++;
 8000676:	e7ef      	b.n	8000658 <vOrangeLedControllerTask+0x8>
 8000678:	20004940 	.word	0x20004940
 800067c:	000186a0 	.word	0x000186a0

08000680 <SystemClock_Config>:
/**
  * @brief System Clock Configuration
  * @retval None
  */
void SystemClock_Config(void)
{
 8000680:	b580      	push	{r7, lr}
 8000682:	b094      	sub	sp, #80	; 0x50
 8000684:	af00      	add	r7, sp, #0
  RCC_OscInitTypeDef RCC_OscInitStruct = {0};
 8000686:	f107 0320 	add.w	r3, r7, #32
 800068a:	2230      	movs	r2, #48	; 0x30
 800068c:	2100      	movs	r1, #0
 800068e:	4618      	mov	r0, r3
 8000690:	f004 fb06 	bl	8004ca0 <memset>
  RCC_ClkInitTypeDef RCC_ClkInitStruct = {0};
 8000694:	f107 030c 	add.w	r3, r7, #12
 8000698:	2200      	movs	r2, #0
 800069a:	601a      	str	r2, [r3, #0]
 800069c:	605a      	str	r2, [r3, #4]
 800069e:	609a      	str	r2, [r3, #8]
 80006a0:	60da      	str	r2, [r3, #12]
 80006a2:	611a      	str	r2, [r3, #16]

  /** Configure the main internal regulator output voltage
  */
  __HAL_RCC_PWR_CLK_ENABLE();
 80006a4:	2300      	movs	r3, #0
 80006a6:	60bb      	str	r3, [r7, #8]
 80006a8:	4b23      	ldr	r3, [pc, #140]	; (8000738 <SystemClock_Config+0xb8>)
 80006aa:	6c1b      	ldr	r3, [r3, #64]	; 0x40
 80006ac:	4a22      	ldr	r2, [pc, #136]	; (8000738 <SystemClock_Config+0xb8>)
 80006ae:	f043 5380 	orr.w	r3, r3, #268435456	; 0x10000000
 80006b2:	6413      	str	r3, [r2, #64]	; 0x40
 80006b4:	4b20      	ldr	r3, [pc, #128]	; (8000738 <SystemClock_Config+0xb8>)
 80006b6:	6c1b      	ldr	r3, [r3, #64]	; 0x40
 80006b8:	f003 5380 	and.w	r3, r3, #268435456	; 0x10000000
 80006bc:	60bb      	str	r3, [r7, #8]
 80006be:	68bb      	ldr	r3, [r7, #8]
  __HAL_PWR_VOLTAGESCALING_CONFIG(PWR_REGULATOR_VOLTAGE_SCALE2);
 80006c0:	2300      	movs	r3, #0
 80006c2:	607b      	str	r3, [r7, #4]
 80006c4:	4b1d      	ldr	r3, [pc, #116]	; (800073c <SystemClock_Config+0xbc>)
 80006c6:	681b      	ldr	r3, [r3, #0]
 80006c8:	f423 4340 	bic.w	r3, r3, #49152	; 0xc000
 80006cc:	4a1b      	ldr	r2, [pc, #108]	; (800073c <SystemClock_Config+0xbc>)
 80006ce:	f443 4300 	orr.w	r3, r3, #32768	; 0x8000
 80006d2:	6013      	str	r3, [r2, #0]
 80006d4:	4b19      	ldr	r3, [pc, #100]	; (800073c <SystemClock_Config+0xbc>)
 80006d6:	681b      	ldr	r3, [r3, #0]
 80006d8:	f403 4340 	and.w	r3, r3, #49152	; 0xc000
 80006dc:	607b      	str	r3, [r7, #4]
 80006de:	687b      	ldr	r3, [r7, #4]
  /** Initializes the RCC Oscillators according to the specified parameters
  * in the RCC_OscInitTypeDef structure.
  */
  RCC_OscInitStruct.OscillatorType = RCC_OSCILLATORTYPE_HSI;
 80006e0:	2302      	movs	r3, #2
 80006e2:	623b      	str	r3, [r7, #32]
  RCC_OscInitStruct.HSIState = RCC_HSI_ON;
 80006e4:	2301      	movs	r3, #1
 80006e6:	62fb      	str	r3, [r7, #44]	; 0x2c
  RCC_OscInitStruct.HSICalibrationValue = RCC_HSICALIBRATION_DEFAULT;
 80006e8:	2310      	movs	r3, #16
 80006ea:	633b      	str	r3, [r7, #48]	; 0x30
  RCC_OscInitStruct.PLL.PLLState = RCC_PLL_NONE;
 80006ec:	2300      	movs	r3, #0
 80006ee:	63bb      	str	r3, [r7, #56]	; 0x38
  if (HAL_RCC_OscConfig(&RCC_OscInitStruct) != HAL_OK)
 80006f0:	f107 0320 	add.w	r3, r7, #32
 80006f4:	4618      	mov	r0, r3
 80006f6:	f000 fc4f 	bl	8000f98 <HAL_RCC_OscConfig>
 80006fa:	4603      	mov	r3, r0
 80006fc:	2b00      	cmp	r3, #0
 80006fe:	d001      	beq.n	8000704 <SystemClock_Config+0x84>
  {
    Error_Handler();
 8000700:	f000 f874 	bl	80007ec <Error_Handler>
  }
  /** Initializes the CPU, AHB and APB buses clocks
  */
  RCC_ClkInitStruct.ClockType = RCC_CLOCKTYPE_HCLK|RCC_CLOCKTYPE_SYSCLK
 8000704:	230f      	movs	r3, #15
 8000706:	60fb      	str	r3, [r7, #12]
                              |RCC_CLOCKTYPE_PCLK1|RCC_CLOCKTYPE_PCLK2;
  RCC_ClkInitStruct.SYSCLKSource = RCC_SYSCLKSOURCE_HSI;
 8000708:	2300      	movs	r3, #0
 800070a:	613b      	str	r3, [r7, #16]
  RCC_ClkInitStruct.AHBCLKDivider = RCC_SYSCLK_DIV1;
 800070c:	2300      	movs	r3, #0
 800070e:	617b      	str	r3, [r7, #20]
  RCC_ClkInitStruct.APB1CLKDivider = RCC_HCLK_DIV1;
 8000710:	2300      	movs	r3, #0
 8000712:	61bb      	str	r3, [r7, #24]
  RCC_ClkInitStruct.APB2CLKDivider = RCC_HCLK_DIV1;
 8000714:	2300      	movs	r3, #0
 8000716:	61fb      	str	r3, [r7, #28]

  if (HAL_RCC_ClockConfig(&RCC_ClkInitStruct, FLASH_LATENCY_0) != HAL_OK)
 8000718:	f107 030c 	add.w	r3, r7, #12
 800071c:	2100      	movs	r1, #0
 800071e:	4618      	mov	r0, r3
 8000720:	f000 feb2 	bl	8001488 <HAL_RCC_ClockConfig>
 8000724:	4603      	mov	r3, r0
 8000726:	2b00      	cmp	r3, #0
 8000728:	d001      	beq.n	800072e <SystemClock_Config+0xae>
  {
    Error_Handler();
 800072a:	f000 f85f 	bl	80007ec <Error_Handler>
  }
}
 800072e:	bf00      	nop
 8000730:	3750      	adds	r7, #80	; 0x50
 8000732:	46bd      	mov	sp, r7
 8000734:	bd80      	pop	{r7, pc}
 8000736:	bf00      	nop
 8000738:	40023800 	.word	0x40023800
 800073c:	40007000 	.word	0x40007000

08000740 <MX_USART2_UART_Init>:
  * @brief USART2 Initialization Function
  * @param None
  * @retval None
  */
static void MX_USART2_UART_Init(void)
{
 8000740:	b580      	push	{r7, lr}
 8000742:	af00      	add	r7, sp, #0
  /*USART2_Init 1 */
  huart2.Instance = USART2;
 8000744:	4b11      	ldr	r3, [pc, #68]	; (800078c <MX_USART2_UART_Init+0x4c>)
 8000746:	4a12      	ldr	r2, [pc, #72]	; (8000790 <MX_USART2_UART_Init+0x50>)
 8000748:	601a      	str	r2, [r3, #0]
  huart2.Init.BaudRate = 115200;
 800074a:	4b10      	ldr	r3, [pc, #64]	; (800078c <MX_USART2_UART_Init+0x4c>)
 800074c:	f44f 32e1 	mov.w	r2, #115200	; 0x1c200
 8000750:	605a      	str	r2, [r3, #4]
  huart2.Init.WordLength = UART_WORDLENGTH_8B;
 8000752:	4b0e      	ldr	r3, [pc, #56]	; (800078c <MX_USART2_UART_Init+0x4c>)
 8000754:	2200      	movs	r2, #0
 8000756:	609a      	str	r2, [r3, #8]
  huart2.Init.StopBits = UART_STOPBITS_1;
 8000758:	4b0c      	ldr	r3, [pc, #48]	; (800078c <MX_USART2_UART_Init+0x4c>)
 800075a:	2200      	movs	r2, #0
 800075c:	60da      	str	r2, [r3, #12]
  huart2.Init.Parity = UART_PARITY_NONE;
 800075e:	4b0b      	ldr	r3, [pc, #44]	; (800078c <MX_USART2_UART_Init+0x4c>)
 8000760:	2200      	movs	r2, #0
 8000762:	611a      	str	r2, [r3, #16]
  huart2.Init.Mode = UART_MODE_TX_RX;
 8000764:	4b09      	ldr	r3, [pc, #36]	; (800078c <MX_USART2_UART_Init+0x4c>)
 8000766:	220c      	movs	r2, #12
 8000768:	615a      	str	r2, [r3, #20]
  huart2.Init.HwFlowCtl = UART_HWCONTROL_NONE;
 800076a:	4b08      	ldr	r3, [pc, #32]	; (800078c <MX_USART2_UART_Init+0x4c>)
 800076c:	2200      	movs	r2, #0
 800076e:	619a      	str	r2, [r3, #24]
  huart2.Init.OverSampling = UART_OVERSAMPLING_16;
 8000770:	4b06      	ldr	r3, [pc, #24]	; (800078c <MX_USART2_UART_Init+0x4c>)
 8000772:	2200      	movs	r2, #0
 8000774:	61da      	str	r2, [r3, #28]
  if (HAL_UART_Init(&huart2) != HAL_OK)
 8000776:	4805      	ldr	r0, [pc, #20]	; (800078c <MX_USART2_UART_Init+0x4c>)
 8000778:	f001 fb08 	bl	8001d8c <HAL_UART_Init>
 800077c:	4603      	mov	r3, r0
 800077e:	2b00      	cmp	r3, #0
 8000780:	d001      	beq.n	8000786 <MX_USART2_UART_Init+0x46>
  {
    Error_Handler();
 8000782:	f000 f833 	bl	80007ec <Error_Handler>
  }


}
 8000786:	bf00      	nop
 8000788:	bd80      	pop	{r7, pc}
 800078a:	bf00      	nop
 800078c:	20004948 	.word	0x20004948
 8000790:	40004400 	.word	0x40004400

08000794 <MX_GPIO_Init>:
  * @brief GPIO Initialization Function
  * @param None
  * @retval None
  */
static void MX_GPIO_Init(void)
{
 8000794:	b480      	push	{r7}
 8000796:	b083      	sub	sp, #12
 8000798:	af00      	add	r7, sp, #0

  /* GPIO Ports Clock Enable */
  __HAL_RCC_GPIOA_CLK_ENABLE();
 800079a:	2300      	movs	r3, #0
 800079c:	607b      	str	r3, [r7, #4]
 800079e:	4b09      	ldr	r3, [pc, #36]	; (80007c4 <MX_GPIO_Init+0x30>)
 80007a0:	6b1b      	ldr	r3, [r3, #48]	; 0x30
 80007a2:	4a08      	ldr	r2, [pc, #32]	; (80007c4 <MX_GPIO_Init+0x30>)
 80007a4:	f043 0301 	orr.w	r3, r3, #1
 80007a8:	6313      	str	r3, [r2, #48]	; 0x30
 80007aa:	4b06      	ldr	r3, [pc, #24]	; (80007c4 <MX_GPIO_Init+0x30>)
 80007ac:	6b1b      	ldr	r3, [r3, #48]	; 0x30
 80007ae:	f003 0301 	and.w	r3, r3, #1
 80007b2:	607b      	str	r3, [r7, #4]
 80007b4:	687b      	ldr	r3, [r7, #4]

}
 80007b6:	bf00      	nop
 80007b8:	370c      	adds	r7, #12
 80007ba:	46bd      	mov	sp, r7
 80007bc:	f85d 7b04 	ldr.w	r7, [sp], #4
 80007c0:	4770      	bx	lr
 80007c2:	bf00      	nop
 80007c4:	40023800 	.word	0x40023800

080007c8 <HAL_TIM_PeriodElapsedCallback>:
  * a global variable "uwTick" used as application time base.
  * @param  htim : TIM handle
  * @retval None
  */
void HAL_TIM_PeriodElapsedCallback(TIM_HandleTypeDef *htim)
{
 80007c8:	b580      	push	{r7, lr}
 80007ca:	b082      	sub	sp, #8
 80007cc:	af00      	add	r7, sp, #0
 80007ce:	6078      	str	r0, [r7, #4]
  /* USER CODE BEGIN Callback 0 */

  /* USER CODE END Callback 0 */
  if (htim->Instance == TIM1) {
 80007d0:	687b      	ldr	r3, [r7, #4]
 80007d2:	681b      	ldr	r3, [r3, #0]
 80007d4:	4a04      	ldr	r2, [pc, #16]	; (80007e8 <HAL_TIM_PeriodElapsedCallback+0x20>)
 80007d6:	4293      	cmp	r3, r2
 80007d8:	d101      	bne.n	80007de <HAL_TIM_PeriodElapsedCallback+0x16>
    HAL_IncTick();
 80007da:	f000 f957 	bl	8000a8c <HAL_IncTick>
  }
  /* USER CODE BEGIN Callback 1 */

  /* USER CODE END Callback 1 */
}
 80007de:	bf00      	nop
 80007e0:	3708      	adds	r7, #8
 80007e2:	46bd      	mov	sp, r7
 80007e4:	bd80      	pop	{r7, pc}
 80007e6:	bf00      	nop
 80007e8:	40010000 	.word	0x40010000

080007ec <Error_Handler>:
/**
  * @brief  This function is executed in case of error occurrence.
  * @retval None
  */
void Error_Handler(void)
{
 80007ec:	b480      	push	{r7}
 80007ee:	af00      	add	r7, sp, #0
  \details Disables IRQ interrupts by setting the I-bit in the CPSR.
           Can only be executed in Privileged modes.
 */
__STATIC_FORCEINLINE void __disable_irq(void)
{
  __ASM volatile ("cpsid i" : : : "memory");
 80007f0:	b672      	cpsid	i
}
 80007f2:	bf00      	nop
  /* USER CODE BEGIN Error_Handler_Debug */
  /* User can add his own implementation to report the HAL error return state */
  __disable_irq();
  while (1)
 80007f4:	e7fe      	b.n	80007f4 <Error_Handler+0x8>
	...

080007f8 <HAL_MspInit>:
 80007f8:	b580      	push	{r7, lr}
 80007fa:	b082      	sub	sp, #8
 80007fc:	af00      	add	r7, sp, #0
 80007fe:	2300      	movs	r3, #0
 8000800:	607b      	str	r3, [r7, #4]
 8000802:	4b12      	ldr	r3, [pc, #72]	; (800084c <HAL_MspInit+0x54>)
 8000804:	6c5b      	ldr	r3, [r3, #68]	; 0x44
 8000806:	4a11      	ldr	r2, [pc, #68]	; (800084c <HAL_MspInit+0x54>)
 8000808:	f443 4380 	orr.w	r3, r3, #16384	; 0x4000
 800080c:	6453      	str	r3, [r2, #68]	; 0x44
 800080e:	4b0f      	ldr	r3, [pc, #60]	; (800084c <HAL_MspInit+0x54>)
 8000810:	6c5b      	ldr	r3, [r3, #68]	; 0x44
 8000812:	f403 4380 	and.w	r3, r3, #16384	; 0x4000
 8000816:	607b      	str	r3, [r7, #4]
 8000818:	687b      	ldr	r3, [r7, #4]
 800081a:	2300      	movs	r3, #0
 800081c:	603b      	str	r3, [r7, #0]
 800081e:	4b0b      	ldr	r3, [pc, #44]	; (800084c <HAL_MspInit+0x54>)
 8000820:	6c1b      	ldr	r3, [r3, #64]	; 0x40
 8000822:	4a0a      	ldr	r2, [pc, #40]	; (800084c <HAL_MspInit+0x54>)
 8000824:	f043 5380 	orr.w	r3, r3, #268435456	; 0x10000000
 8000828:	6413      	str	r3, [r2, #64]	; 0x40
 800082a:	4b08      	ldr	r3, [pc, #32]	; (800084c <HAL_MspInit+0x54>)
 800082c:	6c1b      	ldr	r3, [r3, #64]	; 0x40
 800082e:	f003 5380 	and.w	r3, r3, #268435456	; 0x10000000
 8000832:	603b      	str	r3, [r7, #0]
 8000834:	683b      	ldr	r3, [r7, #0]
 8000836:	2200      	movs	r2, #0
 8000838:	210f      	movs	r1, #15
 800083a:	f06f 0001 	mvn.w	r0, #1
 800083e:	f000 f9fd 	bl	8000c3c <HAL_NVIC_SetPriority>
 8000842:	bf00      	nop
 8000844:	3708      	adds	r7, #8
 8000846:	46bd      	mov	sp, r7
 8000848:	bd80      	pop	{r7, pc}
 800084a:	bf00      	nop
 800084c:	40023800 	.word	0x40023800

08000850 <HAL_UART_MspInit>:
 8000850:	b580      	push	{r7, lr}
 8000852:	b08a      	sub	sp, #40	; 0x28
 8000854:	af00      	add	r7, sp, #0
 8000856:	6078      	str	r0, [r7, #4]
 8000858:	f107 0314 	add.w	r3, r7, #20
 800085c:	2200      	movs	r2, #0
 800085e:	601a      	str	r2, [r3, #0]
 8000860:	605a      	str	r2, [r3, #4]
 8000862:	609a      	str	r2, [r3, #8]
 8000864:	60da      	str	r2, [r3, #12]
 8000866:	611a      	str	r2, [r3, #16]
 8000868:	687b      	ldr	r3, [r7, #4]
 800086a:	681b      	ldr	r3, [r3, #0]
 800086c:	4a19      	ldr	r2, [pc, #100]	; (80008d4 <HAL_UART_MspInit+0x84>)
 800086e:	4293      	cmp	r3, r2
 8000870:	d12b      	bne.n	80008ca <HAL_UART_MspInit+0x7a>
 8000872:	2300      	movs	r3, #0
 8000874:	613b      	str	r3, [r7, #16]
 8000876:	4b18      	ldr	r3, [pc, #96]	; (80008d8 <HAL_UART_MspInit+0x88>)
 8000878:	6c1b      	ldr	r3, [r3, #64]	; 0x40
 800087a:	4a17      	ldr	r2, [pc, #92]	; (80008d8 <HAL_UART_MspInit+0x88>)
 800087c:	f443 3300 	orr.w	r3, r3, #131072	; 0x20000
 8000880:	6413      	str	r3, [r2, #64]	; 0x40
 8000882:	4b15      	ldr	r3, [pc, #84]	; (80008d8 <HAL_UART_MspInit+0x88>)
 8000884:	6c1b      	ldr	r3, [r3, #64]	; 0x40
 8000886:	f403 3300 	and.w	r3, r3, #131072	; 0x20000
 800088a:	613b      	str	r3, [r7, #16]
 800088c:	693b      	ldr	r3, [r7, #16]
 800088e:	2300      	movs	r3, #0
 8000890:	60fb      	str	r3, [r7, #12]
 8000892:	4b11      	ldr	r3, [pc, #68]	; (80008d8 <HAL_UART_MspInit+0x88>)
 8000894:	6b1b      	ldr	r3, [r3, #48]	; 0x30
 8000896:	4a10      	ldr	r2, [pc, #64]	; (80008d8 <HAL_UART_MspInit+0x88>)
 8000898:	f043 0301 	orr.w	r3, r3, #1
 800089c:	6313      	str	r3, [r2, #48]	; 0x30
 800089e:	4b0e      	ldr	r3, [pc, #56]	; (80008d8 <HAL_UART_MspInit+0x88>)
 80008a0:	6b1b      	ldr	r3, [r3, #48]	; 0x30
 80008a2:	f003 0301 	and.w	r3, r3, #1
 80008a6:	60fb      	str	r3, [r7, #12]
 80008a8:	68fb      	ldr	r3, [r7, #12]
 80008aa:	230c      	movs	r3, #12
 80008ac:	617b      	str	r3, [r7, #20]
 80008ae:	2302      	movs	r3, #2
 80008b0:	61bb      	str	r3, [r7, #24]
 80008b2:	2300      	movs	r3, #0
 80008b4:	61fb      	str	r3, [r7, #28]
 80008b6:	2303      	movs	r3, #3
 80008b8:	623b      	str	r3, [r7, #32]
 80008ba:	2307      	movs	r3, #7
 80008bc:	627b      	str	r3, [r7, #36]	; 0x24
 80008be:	f107 0314 	add.w	r3, r7, #20
 80008c2:	4619      	mov	r1, r3
 80008c4:	4805      	ldr	r0, [pc, #20]	; (80008dc <HAL_UART_MspInit+0x8c>)
 80008c6:	f000 f9e3 	bl	8000c90 <HAL_GPIO_Init>
 80008ca:	bf00      	nop
 80008cc:	3728      	adds	r7, #40	; 0x28
 80008ce:	46bd      	mov	sp, r7
 80008d0:	bd80      	pop	{r7, pc}
 80008d2:	bf00      	nop
 80008d4:	40004400 	.word	0x40004400
 80008d8:	40023800 	.word	0x40023800
 80008dc:	40020000 	.word	0x40020000

080008e0 <HAL_InitTick>:
 80008e0:	b580      	push	{r7, lr}
 80008e2:	b08c      	sub	sp, #48	; 0x30
 80008e4:	af00      	add	r7, sp, #0
 80008e6:	6078      	str	r0, [r7, #4]
 80008e8:	2300      	movs	r3, #0
 80008ea:	62fb      	str	r3, [r7, #44]	; 0x2c
 80008ec:	2300      	movs	r3, #0
 80008ee:	62bb      	str	r3, [r7, #40]	; 0x28
 80008f0:	2200      	movs	r2, #0
 80008f2:	6879      	ldr	r1, [r7, #4]
 80008f4:	2019      	movs	r0, #25
 80008f6:	f000 f9a1 	bl	8000c3c <HAL_NVIC_SetPriority>
 80008fa:	2019      	movs	r0, #25
 80008fc:	f000 f9ba 	bl	8000c74 <HAL_NVIC_EnableIRQ>
 8000900:	2300      	movs	r3, #0
 8000902:	60fb      	str	r3, [r7, #12]
 8000904:	4b1e      	ldr	r3, [pc, #120]	; (8000980 <HAL_InitTick+0xa0>)
 8000906:	6c5b      	ldr	r3, [r3, #68]	; 0x44
 8000908:	4a1d      	ldr	r2, [pc, #116]	; (8000980 <HAL_InitTick+0xa0>)
 800090a:	f043 0301 	orr.w	r3, r3, #1
 800090e:	6453      	str	r3, [r2, #68]	; 0x44
 8000910:	4b1b      	ldr	r3, [pc, #108]	; (8000980 <HAL_InitTick+0xa0>)
 8000912:	6c5b      	ldr	r3, [r3, #68]	; 0x44
 8000914:	f003 0301 	and.w	r3, r3, #1
 8000918:	60fb      	str	r3, [r7, #12]
 800091a:	68fb      	ldr	r3, [r7, #12]
 800091c:	f107 0210 	add.w	r2, r7, #16
 8000920:	f107 0314 	add.w	r3, r7, #20
 8000924:	4611      	mov	r1, r2
 8000926:	4618      	mov	r0, r3
 8000928:	f000 ff7e 	bl	8001828 <HAL_RCC_GetClockConfig>
 800092c:	f000 ff68 	bl	8001800 <HAL_RCC_GetPCLK2Freq>
 8000930:	62f8      	str	r0, [r7, #44]	; 0x2c
 8000932:	6afb      	ldr	r3, [r7, #44]	; 0x2c
 8000934:	4a13      	ldr	r2, [pc, #76]	; (8000984 <HAL_InitTick+0xa4>)
 8000936:	fba2 2303 	umull	r2, r3, r2, r3
 800093a:	0c9b      	lsrs	r3, r3, #18
 800093c:	3b01      	subs	r3, #1
 800093e:	62bb      	str	r3, [r7, #40]	; 0x28
 8000940:	4b11      	ldr	r3, [pc, #68]	; (8000988 <HAL_InitTick+0xa8>)
 8000942:	4a12      	ldr	r2, [pc, #72]	; (800098c <HAL_InitTick+0xac>)
 8000944:	601a      	str	r2, [r3, #0]
 8000946:	4b10      	ldr	r3, [pc, #64]	; (8000988 <HAL_InitTick+0xa8>)
 8000948:	f240 32e7 	movw	r2, #999	; 0x3e7
 800094c:	60da      	str	r2, [r3, #12]
 800094e:	4a0e      	ldr	r2, [pc, #56]	; (8000988 <HAL_InitTick+0xa8>)
 8000950:	6abb      	ldr	r3, [r7, #40]	; 0x28
 8000952:	6053      	str	r3, [r2, #4]
 8000954:	4b0c      	ldr	r3, [pc, #48]	; (8000988 <HAL_InitTick+0xa8>)
 8000956:	2200      	movs	r2, #0
 8000958:	611a      	str	r2, [r3, #16]
 800095a:	4b0b      	ldr	r3, [pc, #44]	; (8000988 <HAL_InitTick+0xa8>)
 800095c:	2200      	movs	r2, #0
 800095e:	609a      	str	r2, [r3, #8]
 8000960:	4809      	ldr	r0, [pc, #36]	; (8000988 <HAL_InitTick+0xa8>)
 8000962:	f000 ff93 	bl	800188c <HAL_TIM_Base_Init>
 8000966:	4603      	mov	r3, r0
 8000968:	2b00      	cmp	r3, #0
 800096a:	d104      	bne.n	8000976 <HAL_InitTick+0x96>
 800096c:	4806      	ldr	r0, [pc, #24]	; (8000988 <HAL_InitTick+0xa8>)
 800096e:	f000 ffe7 	bl	8001940 <HAL_TIM_Base_Start_IT>
 8000972:	4603      	mov	r3, r0
 8000974:	e000      	b.n	8000978 <HAL_InitTick+0x98>
 8000976:	2301      	movs	r3, #1
 8000978:	4618      	mov	r0, r3
 800097a:	3730      	adds	r7, #48	; 0x30
 800097c:	46bd      	mov	sp, r7
 800097e:	bd80      	pop	{r7, pc}
 8000980:	40023800 	.word	0x40023800
 8000984:	431bde83 	.word	0x431bde83
 8000988:	20004990 	.word	0x20004990
 800098c:	40010000 	.word	0x40010000

08000990 <NMI_Handler>:
 8000990:	b480      	push	{r7}
 8000992:	af00      	add	r7, sp, #0
 8000994:	e7fe      	b.n	8000994 <NMI_Handler+0x4>

08000996 <HardFault_Handler>:
 8000996:	b480      	push	{r7}
 8000998:	af00      	add	r7, sp, #0
 800099a:	e7fe      	b.n	800099a <HardFault_Handler+0x4>

0800099c <MemManage_Handler>:
 800099c:	b480      	push	{r7}
 800099e:	af00      	add	r7, sp, #0
 80009a0:	e7fe      	b.n	80009a0 <MemManage_Handler+0x4>

080009a2 <BusFault_Handler>:
 80009a2:	b480      	push	{r7}
 80009a4:	af00      	add	r7, sp, #0
 80009a6:	e7fe      	b.n	80009a6 <BusFault_Handler+0x4>

080009a8 <UsageFault_Handler>:
 80009a8:	b480      	push	{r7}
 80009aa:	af00      	add	r7, sp, #0
 80009ac:	e7fe      	b.n	80009ac <UsageFault_Handler+0x4>

080009ae <DebugMon_Handler>:
 80009ae:	b480      	push	{r7}
 80009b0:	af00      	add	r7, sp, #0
 80009b2:	bf00      	nop
 80009b4:	46bd      	mov	sp, r7
 80009b6:	f85d 7b04 	ldr.w	r7, [sp], #4
 80009ba:	4770      	bx	lr

080009bc <TIM1_UP_TIM10_IRQHandler>:
 80009bc:	b580      	push	{r7, lr}
 80009be:	af00      	add	r7, sp, #0
 80009c0:	4802      	ldr	r0, [pc, #8]	; (80009cc <TIM1_UP_TIM10_IRQHandler+0x10>)
 80009c2:	f001 f81f 	bl	8001a04 <HAL_TIM_IRQHandler>
 80009c6:	bf00      	nop
 80009c8:	bd80      	pop	{r7, pc}
 80009ca:	bf00      	nop
 80009cc:	20004990 	.word	0x20004990

080009d0 <SystemInit>:
 80009d0:	b480      	push	{r7}
 80009d2:	af00      	add	r7, sp, #0
 80009d4:	4b06      	ldr	r3, [pc, #24]	; (80009f0 <SystemInit+0x20>)
 80009d6:	f8d3 3088 	ldr.w	r3, [r3, #136]	; 0x88
 80009da:	4a05      	ldr	r2, [pc, #20]	; (80009f0 <SystemInit+0x20>)
 80009dc:	f443 0370 	orr.w	r3, r3, #15728640	; 0xf00000
 80009e0:	f8c2 3088 	str.w	r3, [r2, #136]	; 0x88
 80009e4:	bf00      	nop
 80009e6:	46bd      	mov	sp, r7
 80009e8:	f85d 7b04 	ldr.w	r7, [sp], #4
 80009ec:	4770      	bx	lr
 80009ee:	bf00      	nop
 80009f0:	e000ed00 	.word	0xe000ed00

080009f4 <Reset_Handler>:
 80009f4:	f8df d034 	ldr.w	sp, [pc, #52]	; 8000a2c <LoopFillZerobss+0x12>
 80009f8:	480d      	ldr	r0, [pc, #52]	; (8000a30 <LoopFillZerobss+0x16>)
 80009fa:	490e      	ldr	r1, [pc, #56]	; (8000a34 <LoopFillZerobss+0x1a>)
 80009fc:	4a0e      	ldr	r2, [pc, #56]	; (8000a38 <LoopFillZerobss+0x1e>)
 80009fe:	2300      	movs	r3, #0
 8000a00:	e002      	b.n	8000a08 <LoopCopyDataInit>

08000a02 <CopyDataInit>:
 8000a02:	58d4      	ldr	r4, [r2, r3]
 8000a04:	50c4      	str	r4, [r0, r3]
 8000a06:	3304      	adds	r3, #4

08000a08 <LoopCopyDataInit>:
 8000a08:	18c4      	adds	r4, r0, r3
 8000a0a:	428c      	cmp	r4, r1
 8000a0c:	d3f9      	bcc.n	8000a02 <CopyDataInit>
 8000a0e:	4a0b      	ldr	r2, [pc, #44]	; (8000a3c <LoopFillZerobss+0x22>)
 8000a10:	4c0b      	ldr	r4, [pc, #44]	; (8000a40 <LoopFillZerobss+0x26>)
 8000a12:	2300      	movs	r3, #0
 8000a14:	e001      	b.n	8000a1a <LoopFillZerobss>

08000a16 <FillZerobss>:
 8000a16:	6013      	str	r3, [r2, #0]
 8000a18:	3204      	adds	r2, #4

08000a1a <LoopFillZerobss>:
 8000a1a:	42a2      	cmp	r2, r4
 8000a1c:	d3fb      	bcc.n	8000a16 <FillZerobss>
 8000a1e:	f7ff ffd7 	bl	80009d0 <SystemInit>
 8000a22:	f004 f90b 	bl	8004c3c <__libc_init_array>
 8000a26:	f7ff fd57 	bl	80004d8 <main>
 8000a2a:	4770      	bx	lr
 8000a2c:	20018000 	.word	0x20018000
 8000a30:	20000000 	.word	0x20000000
 8000a34:	20000010 	.word	0x20000010
 8000a38:	08004d34 	.word	0x08004d34
 8000a3c:	20000010 	.word	0x20000010
 8000a40:	20004a1c 	.word	0x20004a1c

08000a44 <ADC_IRQHandler>:
 8000a44:	e7fe      	b.n	8000a44 <ADC_IRQHandler>
	...

08000a48 <HAL_Init>:
 8000a48:	b580      	push	{r7, lr}
 8000a4a:	af00      	add	r7, sp, #0
 8000a4c:	4b0e      	ldr	r3, [pc, #56]	; (8000a88 <HAL_Init+0x40>)
 8000a4e:	681b      	ldr	r3, [r3, #0]
 8000a50:	4a0d      	ldr	r2, [pc, #52]	; (8000a88 <HAL_Init+0x40>)
 8000a52:	f443 7300 	orr.w	r3, r3, #512	; 0x200
 8000a56:	6013      	str	r3, [r2, #0]
 8000a58:	4b0b      	ldr	r3, [pc, #44]	; (8000a88 <HAL_Init+0x40>)
 8000a5a:	681b      	ldr	r3, [r3, #0]
 8000a5c:	4a0a      	ldr	r2, [pc, #40]	; (8000a88 <HAL_Init+0x40>)
 8000a5e:	f443 6380 	orr.w	r3, r3, #1024	; 0x400
 8000a62:	6013      	str	r3, [r2, #0]
 8000a64:	4b08      	ldr	r3, [pc, #32]	; (8000a88 <HAL_Init+0x40>)
 8000a66:	681b      	ldr	r3, [r3, #0]
 8000a68:	4a07      	ldr	r2, [pc, #28]	; (8000a88 <HAL_Init+0x40>)
 8000a6a:	f443 7380 	orr.w	r3, r3, #256	; 0x100
 8000a6e:	6013      	str	r3, [r2, #0]
 8000a70:	2003      	movs	r0, #3
 8000a72:	f000 f8d8 	bl	8000c26 <HAL_NVIC_SetPriorityGrouping>
 8000a76:	200f      	movs	r0, #15
 8000a78:	f7ff ff32 	bl	80008e0 <HAL_InitTick>
 8000a7c:	f7ff febc 	bl	80007f8 <HAL_MspInit>
 8000a80:	2300      	movs	r3, #0
 8000a82:	4618      	mov	r0, r3
 8000a84:	bd80      	pop	{r7, pc}
 8000a86:	bf00      	nop
 8000a88:	40023c00 	.word	0x40023c00

08000a8c <HAL_IncTick>:
 8000a8c:	b480      	push	{r7}
 8000a8e:	af00      	add	r7, sp, #0
 8000a90:	4b06      	ldr	r3, [pc, #24]	; (8000aac <HAL_IncTick+0x20>)
 8000a92:	781b      	ldrb	r3, [r3, #0]
 8000a94:	461a      	mov	r2, r3
 8000a96:	4b06      	ldr	r3, [pc, #24]	; (8000ab0 <HAL_IncTick+0x24>)
 8000a98:	681b      	ldr	r3, [r3, #0]
 8000a9a:	4413      	add	r3, r2
 8000a9c:	4a04      	ldr	r2, [pc, #16]	; (8000ab0 <HAL_IncTick+0x24>)
 8000a9e:	6013      	str	r3, [r2, #0]
 8000aa0:	bf00      	nop
 8000aa2:	46bd      	mov	sp, r7
 8000aa4:	f85d 7b04 	ldr.w	r7, [sp], #4
 8000aa8:	4770      	bx	lr
 8000aaa:	bf00      	nop
 8000aac:	20000008 	.word	0x20000008
 8000ab0:	200049d8 	.word	0x200049d8

08000ab4 <HAL_GetTick>:
 8000ab4:	b480      	push	{r7}
 8000ab6:	af00      	add	r7, sp, #0
 8000ab8:	4b03      	ldr	r3, [pc, #12]	; (8000ac8 <HAL_GetTick+0x14>)
 8000aba:	681b      	ldr	r3, [r3, #0]
 8000abc:	4618      	mov	r0, r3
 8000abe:	46bd      	mov	sp, r7
 8000ac0:	f85d 7b04 	ldr.w	r7, [sp], #4
 8000ac4:	4770      	bx	lr
 8000ac6:	bf00      	nop
 8000ac8:	200049d8 	.word	0x200049d8

08000acc <__NVIC_SetPriorityGrouping>:
 8000acc:	b480      	push	{r7}
 8000ace:	b085      	sub	sp, #20
 8000ad0:	af00      	add	r7, sp, #0
 8000ad2:	6078      	str	r0, [r7, #4]
 8000ad4:	687b      	ldr	r3, [r7, #4]
 8000ad6:	f003 0307 	and.w	r3, r3, #7
 8000ada:	60fb      	str	r3, [r7, #12]
 8000adc:	4b0c      	ldr	r3, [pc, #48]	; (8000b10 <__NVIC_SetPriorityGrouping+0x44>)
 8000ade:	68db      	ldr	r3, [r3, #12]
 8000ae0:	60bb      	str	r3, [r7, #8]
 8000ae2:	68ba      	ldr	r2, [r7, #8]
 8000ae4:	f64f 03ff 	movw	r3, #63743	; 0xf8ff
 8000ae8:	4013      	ands	r3, r2
 8000aea:	60bb      	str	r3, [r7, #8]
 8000aec:	68fb      	ldr	r3, [r7, #12]
 8000aee:	021a      	lsls	r2, r3, #8
 8000af0:	68bb      	ldr	r3, [r7, #8]
 8000af2:	4313      	orrs	r3, r2
 8000af4:	f043 63bf 	orr.w	r3, r3, #100139008	; 0x5f80000
 8000af8:	f443 3300 	orr.w	r3, r3, #131072	; 0x20000
 8000afc:	60bb      	str	r3, [r7, #8]
 8000afe:	4a04      	ldr	r2, [pc, #16]	; (8000b10 <__NVIC_SetPriorityGrouping+0x44>)
 8000b00:	68bb      	ldr	r3, [r7, #8]
 8000b02:	60d3      	str	r3, [r2, #12]
 8000b04:	bf00      	nop
 8000b06:	3714      	adds	r7, #20
 8000b08:	46bd      	mov	sp, r7
 8000b0a:	f85d 7b04 	ldr.w	r7, [sp], #4
 8000b0e:	4770      	bx	lr
 8000b10:	e000ed00 	.word	0xe000ed00

08000b14 <__NVIC_GetPriorityGrouping>:
 8000b14:	b480      	push	{r7}
 8000b16:	af00      	add	r7, sp, #0
 8000b18:	4b04      	ldr	r3, [pc, #16]	; (8000b2c <__NVIC_GetPriorityGrouping+0x18>)
 8000b1a:	68db      	ldr	r3, [r3, #12]
 8000b1c:	0a1b      	lsrs	r3, r3, #8
 8000b1e:	f003 0307 	and.w	r3, r3, #7
 8000b22:	4618      	mov	r0, r3
 8000b24:	46bd      	mov	sp, r7
 8000b26:	f85d 7b04 	ldr.w	r7, [sp], #4
 8000b2a:	4770      	bx	lr
 8000b2c:	e000ed00 	.word	0xe000ed00

08000b30 <__NVIC_EnableIRQ>:
 8000b30:	b480      	push	{r7}
 8000b32:	b083      	sub	sp, #12
 8000b34:	af00      	add	r7, sp, #0
 8000b36:	4603      	mov	r3, r0
 8000b38:	71fb      	strb	r3, [r7, #7]
 8000b3a:	f997 3007 	ldrsb.w	r3, [r7, #7]
 8000b3e:	2b00      	cmp	r3, #0
 8000b40:	db0b      	blt.n	8000b5a <__NVIC_EnableIRQ+0x2a>
 8000b42:	79fb      	ldrb	r3, [r7, #7]
 8000b44:	f003 021f 	and.w	r2, r3, #31
 8000b48:	4907      	ldr	r1, [pc, #28]	; (8000b68 <__NVIC_EnableIRQ+0x38>)
 8000b4a:	f997 3007 	ldrsb.w	r3, [r7, #7]
 8000b4e:	095b      	lsrs	r3, r3, #5
 8000b50:	2001      	movs	r0, #1
 8000b52:	fa00 f202 	lsl.w	r2, r0, r2
 8000b56:	f841 2023 	str.w	r2, [r1, r3, lsl #2]
 8000b5a:	bf00      	nop
 8000b5c:	370c      	adds	r7, #12
 8000b5e:	46bd      	mov	sp, r7
 8000b60:	f85d 7b04 	ldr.w	r7, [sp], #4
 8000b64:	4770      	bx	lr
 8000b66:	bf00      	nop
 8000b68:	e000e100 	.word	0xe000e100

08000b6c <__NVIC_SetPriority>:
 8000b6c:	b480      	push	{r7}
 8000b6e:	b083      	sub	sp, #12
 8000b70:	af00      	add	r7, sp, #0
 8000b72:	4603      	mov	r3, r0
 8000b74:	6039      	str	r1, [r7, #0]
 8000b76:	71fb      	strb	r3, [r7, #7]
 8000b78:	f997 3007 	ldrsb.w	r3, [r7, #7]
 8000b7c:	2b00      	cmp	r3, #0
 8000b7e:	db0a      	blt.n	8000b96 <__NVIC_SetPriority+0x2a>
 8000b80:	683b      	ldr	r3, [r7, #0]
 8000b82:	b2da      	uxtb	r2, r3
 8000b84:	490c      	ldr	r1, [pc, #48]	; (8000bb8 <__NVIC_SetPriority+0x4c>)
 8000b86:	f997 3007 	ldrsb.w	r3, [r7, #7]
 8000b8a:	0112      	lsls	r2, r2, #4
 8000b8c:	b2d2      	uxtb	r2, r2
 8000b8e:	440b      	add	r3, r1
 8000b90:	f883 2300 	strb.w	r2, [r3, #768]	; 0x300
 8000b94:	e00a      	b.n	8000bac <__NVIC_SetPriority+0x40>
 8000b96:	683b      	ldr	r3, [r7, #0]
 8000b98:	b2da      	uxtb	r2, r3
 8000b9a:	4908      	ldr	r1, [pc, #32]	; (8000bbc <__NVIC_SetPriority+0x50>)
 8000b9c:	79fb      	ldrb	r3, [r7, #7]
 8000b9e:	f003 030f 	and.w	r3, r3, #15
 8000ba2:	3b04      	subs	r3, #4
 8000ba4:	0112      	lsls	r2, r2, #4
 8000ba6:	b2d2      	uxtb	r2, r2
 8000ba8:	440b      	add	r3, r1
 8000baa:	761a      	strb	r2, [r3, #24]
 8000bac:	bf00      	nop
 8000bae:	370c      	adds	r7, #12
 8000bb0:	46bd      	mov	sp, r7
 8000bb2:	f85d 7b04 	ldr.w	r7, [sp], #4
 8000bb6:	4770      	bx	lr
 8000bb8:	e000e100 	.word	0xe000e100
 8000bbc:	e000ed00 	.word	0xe000ed00

08000bc0 <NVIC_EncodePriority>:
 8000bc0:	b480      	push	{r7}
 8000bc2:	b089      	sub	sp, #36	; 0x24
 8000bc4:	af00      	add	r7, sp, #0
 8000bc6:	60f8      	str	r0, [r7, #12]
 8000bc8:	60b9      	str	r1, [r7, #8]
 8000bca:	607a      	str	r2, [r7, #4]
 8000bcc:	68fb      	ldr	r3, [r7, #12]
 8000bce:	f003 0307 	and.w	r3, r3, #7
 8000bd2:	61fb      	str	r3, [r7, #28]
 8000bd4:	69fb      	ldr	r3, [r7, #28]
 8000bd6:	f1c3 0307 	rsb	r3, r3, #7
 8000bda:	2b04      	cmp	r3, #4
 8000bdc:	bf28      	it	cs
 8000bde:	2304      	movcs	r3, #4
 8000be0:	61bb      	str	r3, [r7, #24]
 8000be2:	69fb      	ldr	r3, [r7, #28]
 8000be4:	3304      	adds	r3, #4
 8000be6:	2b06      	cmp	r3, #6
 8000be8:	d902      	bls.n	8000bf0 <NVIC_EncodePriority+0x30>
 8000bea:	69fb      	ldr	r3, [r7, #28]
 8000bec:	3b03      	subs	r3, #3
 8000bee:	e000      	b.n	8000bf2 <NVIC_EncodePriority+0x32>
 8000bf0:	2300      	movs	r3, #0
 8000bf2:	617b      	str	r3, [r7, #20]
 8000bf4:	f04f 32ff 	mov.w	r2, #4294967295
 8000bf8:	69bb      	ldr	r3, [r7, #24]
 8000bfa:	fa02 f303 	lsl.w	r3, r2, r3
 8000bfe:	43da      	mvns	r2, r3
 8000c00:	68bb      	ldr	r3, [r7, #8]
 8000c02:	401a      	ands	r2, r3
 8000c04:	697b      	ldr	r3, [r7, #20]
 8000c06:	409a      	lsls	r2, r3
 8000c08:	f04f 31ff 	mov.w	r1, #4294967295
 8000c0c:	697b      	ldr	r3, [r7, #20]
 8000c0e:	fa01 f303 	lsl.w	r3, r1, r3
 8000c12:	43d9      	mvns	r1, r3
 8000c14:	687b      	ldr	r3, [r7, #4]
 8000c16:	400b      	ands	r3, r1
 8000c18:	4313      	orrs	r3, r2
 8000c1a:	4618      	mov	r0, r3
 8000c1c:	3724      	adds	r7, #36	; 0x24
 8000c1e:	46bd      	mov	sp, r7
 8000c20:	f85d 7b04 	ldr.w	r7, [sp], #4
 8000c24:	4770      	bx	lr

08000c26 <HAL_NVIC_SetPriorityGrouping>:
 8000c26:	b580      	push	{r7, lr}
 8000c28:	b082      	sub	sp, #8
 8000c2a:	af00      	add	r7, sp, #0
 8000c2c:	6078      	str	r0, [r7, #4]
 8000c2e:	6878      	ldr	r0, [r7, #4]
 8000c30:	f7ff ff4c 	bl	8000acc <__NVIC_SetPriorityGrouping>
 8000c34:	bf00      	nop
 8000c36:	3708      	adds	r7, #8
 8000c38:	46bd      	mov	sp, r7
 8000c3a:	bd80      	pop	{r7, pc}

08000c3c <HAL_NVIC_SetPriority>:
 8000c3c:	b580      	push	{r7, lr}
 8000c3e:	b086      	sub	sp, #24
 8000c40:	af00      	add	r7, sp, #0
 8000c42:	4603      	mov	r3, r0
 8000c44:	60b9      	str	r1, [r7, #8]
 8000c46:	607a      	str	r2, [r7, #4]
 8000c48:	73fb      	strb	r3, [r7, #15]
 8000c4a:	2300      	movs	r3, #0
 8000c4c:	617b      	str	r3, [r7, #20]
 8000c4e:	f7ff ff61 	bl	8000b14 <__NVIC_GetPriorityGrouping>
 8000c52:	6178      	str	r0, [r7, #20]
 8000c54:	687a      	ldr	r2, [r7, #4]
 8000c56:	68b9      	ldr	r1, [r7, #8]
 8000c58:	6978      	ldr	r0, [r7, #20]
 8000c5a:	f7ff ffb1 	bl	8000bc0 <NVIC_EncodePriority>
 8000c5e:	4602      	mov	r2, r0
 8000c60:	f997 300f 	ldrsb.w	r3, [r7, #15]
 8000c64:	4611      	mov	r1, r2
 8000c66:	4618      	mov	r0, r3
 8000c68:	f7ff ff80 	bl	8000b6c <__NVIC_SetPriority>
 8000c6c:	bf00      	nop
 8000c6e:	3718      	adds	r7, #24
 8000c70:	46bd      	mov	sp, r7
 8000c72:	bd80      	pop	{r7, pc}

08000c74 <HAL_NVIC_EnableIRQ>:
 8000c74:	b580      	push	{r7, lr}
 8000c76:	b082      	sub	sp, #8
 8000c78:	af00      	add	r7, sp, #0
 8000c7a:	4603      	mov	r3, r0
 8000c7c:	71fb      	strb	r3, [r7, #7]
 8000c7e:	f997 3007 	ldrsb.w	r3, [r7, #7]
 8000c82:	4618      	mov	r0, r3
 8000c84:	f7ff ff54 	bl	8000b30 <__NVIC_EnableIRQ>
 8000c88:	bf00      	nop
 8000c8a:	3708      	adds	r7, #8
 8000c8c:	46bd      	mov	sp, r7
 8000c8e:	bd80      	pop	{r7, pc}

08000c90 <HAL_GPIO_Init>:
 8000c90:	b480      	push	{r7}
 8000c92:	b089      	sub	sp, #36	; 0x24
 8000c94:	af00      	add	r7, sp, #0
 8000c96:	6078      	str	r0, [r7, #4]
 8000c98:	6039      	str	r1, [r7, #0]
 8000c9a:	2300      	movs	r3, #0
 8000c9c:	617b      	str	r3, [r7, #20]
 8000c9e:	2300      	movs	r3, #0
 8000ca0:	613b      	str	r3, [r7, #16]
 8000ca2:	2300      	movs	r3, #0
 8000ca4:	61bb      	str	r3, [r7, #24]
 8000ca6:	2300      	movs	r3, #0
 8000ca8:	61fb      	str	r3, [r7, #28]
 8000caa:	e159      	b.n	8000f60 <HAL_GPIO_Init+0x2d0>
 8000cac:	2201      	movs	r2, #1
 8000cae:	69fb      	ldr	r3, [r7, #28]
 8000cb0:	fa02 f303 	lsl.w	r3, r2, r3
 8000cb4:	617b      	str	r3, [r7, #20]
 8000cb6:	683b      	ldr	r3, [r7, #0]
 8000cb8:	681b      	ldr	r3, [r3, #0]
 8000cba:	697a      	ldr	r2, [r7, #20]
 8000cbc:	4013      	ands	r3, r2
 8000cbe:	613b      	str	r3, [r7, #16]
 8000cc0:	693a      	ldr	r2, [r7, #16]
 8000cc2:	697b      	ldr	r3, [r7, #20]
 8000cc4:	429a      	cmp	r2, r3
 8000cc6:	f040 8148 	bne.w	8000f5a <HAL_GPIO_Init+0x2ca>
 8000cca:	683b      	ldr	r3, [r7, #0]
 8000ccc:	685b      	ldr	r3, [r3, #4]
 8000cce:	f003 0303 	and.w	r3, r3, #3
 8000cd2:	2b01      	cmp	r3, #1
 8000cd4:	d005      	beq.n	8000ce2 <HAL_GPIO_Init+0x52>
 8000cd6:	683b      	ldr	r3, [r7, #0]
 8000cd8:	685b      	ldr	r3, [r3, #4]
 8000cda:	f003 0303 	and.w	r3, r3, #3
 8000cde:	2b02      	cmp	r3, #2
 8000ce0:	d130      	bne.n	8000d44 <HAL_GPIO_Init+0xb4>
 8000ce2:	687b      	ldr	r3, [r7, #4]
 8000ce4:	689b      	ldr	r3, [r3, #8]
 8000ce6:	61bb      	str	r3, [r7, #24]
 8000ce8:	69fb      	ldr	r3, [r7, #28]
 8000cea:	005b      	lsls	r3, r3, #1
 8000cec:	2203      	movs	r2, #3
 8000cee:	fa02 f303 	lsl.w	r3, r2, r3
 8000cf2:	43db      	mvns	r3, r3
 8000cf4:	69ba      	ldr	r2, [r7, #24]
 8000cf6:	4013      	ands	r3, r2
 8000cf8:	61bb      	str	r3, [r7, #24]
 8000cfa:	683b      	ldr	r3, [r7, #0]
 8000cfc:	68da      	ldr	r2, [r3, #12]
 8000cfe:	69fb      	ldr	r3, [r7, #28]
 8000d00:	005b      	lsls	r3, r3, #1
 8000d02:	fa02 f303 	lsl.w	r3, r2, r3
 8000d06:	69ba      	ldr	r2, [r7, #24]
 8000d08:	4313      	orrs	r3, r2
 8000d0a:	61bb      	str	r3, [r7, #24]
 8000d0c:	687b      	ldr	r3, [r7, #4]
 8000d0e:	69ba      	ldr	r2, [r7, #24]
 8000d10:	609a      	str	r2, [r3, #8]
 8000d12:	687b      	ldr	r3, [r7, #4]
 8000d14:	685b      	ldr	r3, [r3, #4]
 8000d16:	61bb      	str	r3, [r7, #24]
 8000d18:	2201      	movs	r2, #1
 8000d1a:	69fb      	ldr	r3, [r7, #28]
 8000d1c:	fa02 f303 	lsl.w	r3, r2, r3
 8000d20:	43db      	mvns	r3, r3
 8000d22:	69ba      	ldr	r2, [r7, #24]
 8000d24:	4013      	ands	r3, r2
 8000d26:	61bb      	str	r3, [r7, #24]
 8000d28:	683b      	ldr	r3, [r7, #0]
 8000d2a:	685b      	ldr	r3, [r3, #4]
 8000d2c:	091b      	lsrs	r3, r3, #4
 8000d2e:	f003 0201 	and.w	r2, r3, #1
 8000d32:	69fb      	ldr	r3, [r7, #28]
 8000d34:	fa02 f303 	lsl.w	r3, r2, r3
 8000d38:	69ba      	ldr	r2, [r7, #24]
 8000d3a:	4313      	orrs	r3, r2
 8000d3c:	61bb      	str	r3, [r7, #24]
 8000d3e:	687b      	ldr	r3, [r7, #4]
 8000d40:	69ba      	ldr	r2, [r7, #24]
 8000d42:	605a      	str	r2, [r3, #4]
 8000d44:	683b      	ldr	r3, [r7, #0]
 8000d46:	685b      	ldr	r3, [r3, #4]
 8000d48:	f003 0303 	and.w	r3, r3, #3
 8000d4c:	2b03      	cmp	r3, #3
 8000d4e:	d017      	beq.n	8000d80 <HAL_GPIO_Init+0xf0>
 8000d50:	687b      	ldr	r3, [r7, #4]
 8000d52:	68db      	ldr	r3, [r3, #12]
 8000d54:	61bb      	str	r3, [r7, #24]
 8000d56:	69fb      	ldr	r3, [r7, #28]
 8000d58:	005b      	lsls	r3, r3, #1
 8000d5a:	2203      	movs	r2, #3
 8000d5c:	fa02 f303 	lsl.w	r3, r2, r3
 8000d60:	43db      	mvns	r3, r3
 8000d62:	69ba      	ldr	r2, [r7, #24]
 8000d64:	4013      	ands	r3, r2
 8000d66:	61bb      	str	r3, [r7, #24]
 8000d68:	683b      	ldr	r3, [r7, #0]
 8000d6a:	689a      	ldr	r2, [r3, #8]
 8000d6c:	69fb      	ldr	r3, [r7, #28]
 8000d6e:	005b      	lsls	r3, r3, #1
 8000d70:	fa02 f303 	lsl.w	r3, r2, r3
 8000d74:	69ba      	ldr	r2, [r7, #24]
 8000d76:	4313      	orrs	r3, r2
 8000d78:	61bb      	str	r3, [r7, #24]
 8000d7a:	687b      	ldr	r3, [r7, #4]
 8000d7c:	69ba      	ldr	r2, [r7, #24]
 8000d7e:	60da      	str	r2, [r3, #12]
 8000d80:	683b      	ldr	r3, [r7, #0]
 8000d82:	685b      	ldr	r3, [r3, #4]
 8000d84:	f003 0303 	and.w	r3, r3, #3
 8000d88:	2b02      	cmp	r3, #2
 8000d8a:	d123      	bne.n	8000dd4 <HAL_GPIO_Init+0x144>
 8000d8c:	69fb      	ldr	r3, [r7, #28]
 8000d8e:	08da      	lsrs	r2, r3, #3
 8000d90:	687b      	ldr	r3, [r7, #4]
 8000d92:	3208      	adds	r2, #8
 8000d94:	f853 3022 	ldr.w	r3, [r3, r2, lsl #2]
 8000d98:	61bb      	str	r3, [r7, #24]
 8000d9a:	69fb      	ldr	r3, [r7, #28]
 8000d9c:	f003 0307 	and.w	r3, r3, #7
 8000da0:	009b      	lsls	r3, r3, #2
 8000da2:	220f      	movs	r2, #15
 8000da4:	fa02 f303 	lsl.w	r3, r2, r3
 8000da8:	43db      	mvns	r3, r3
 8000daa:	69ba      	ldr	r2, [r7, #24]
 8000dac:	4013      	ands	r3, r2
 8000dae:	61bb      	str	r3, [r7, #24]
 8000db0:	683b      	ldr	r3, [r7, #0]
 8000db2:	691a      	ldr	r2, [r3, #16]
 8000db4:	69fb      	ldr	r3, [r7, #28]
 8000db6:	f003 0307 	and.w	r3, r3, #7
 8000dba:	009b      	lsls	r3, r3, #2
 8000dbc:	fa02 f303 	lsl.w	r3, r2, r3
 8000dc0:	69ba      	ldr	r2, [r7, #24]
 8000dc2:	4313      	orrs	r3, r2
 8000dc4:	61bb      	str	r3, [r7, #24]
 8000dc6:	69fb      	ldr	r3, [r7, #28]
 8000dc8:	08da      	lsrs	r2, r3, #3
 8000dca:	687b      	ldr	r3, [r7, #4]
 8000dcc:	3208      	adds	r2, #8
 8000dce:	69b9      	ldr	r1, [r7, #24]
 8000dd0:	f843 1022 	str.w	r1, [r3, r2, lsl #2]
 8000dd4:	687b      	ldr	r3, [r7, #4]
 8000dd6:	681b      	ldr	r3, [r3, #0]
 8000dd8:	61bb      	str	r3, [r7, #24]
 8000dda:	69fb      	ldr	r3, [r7, #28]
 8000ddc:	005b      	lsls	r3, r3, #1
 8000dde:	2203      	movs	r2, #3
 8000de0:	fa02 f303 	lsl.w	r3, r2, r3
 8000de4:	43db      	mvns	r3, r3
 8000de6:	69ba      	ldr	r2, [r7, #24]
 8000de8:	4013      	ands	r3, r2
 8000dea:	61bb      	str	r3, [r7, #24]
 8000dec:	683b      	ldr	r3, [r7, #0]
 8000dee:	685b      	ldr	r3, [r3, #4]
 8000df0:	f003 0203 	and.w	r2, r3, #3
 8000df4:	69fb      	ldr	r3, [r7, #28]
 8000df6:	005b      	lsls	r3, r3, #1
 8000df8:	fa02 f303 	lsl.w	r3, r2, r3
 8000dfc:	69ba      	ldr	r2, [r7, #24]
 8000dfe:	4313      	orrs	r3, r2
 8000e00:	61bb      	str	r3, [r7, #24]
 8000e02:	687b      	ldr	r3, [r7, #4]
 8000e04:	69ba      	ldr	r2, [r7, #24]
 8000e06:	601a      	str	r2, [r3, #0]
 8000e08:	683b      	ldr	r3, [r7, #0]
 8000e0a:	685b      	ldr	r3, [r3, #4]
 8000e0c:	f403 3340 	and.w	r3, r3, #196608	; 0x30000
 8000e10:	2b00      	cmp	r3, #0
 8000e12:	f000 80a2 	beq.w	8000f5a <HAL_GPIO_Init+0x2ca>
 8000e16:	2300      	movs	r3, #0
 8000e18:	60fb      	str	r3, [r7, #12]
 8000e1a:	4b57      	ldr	r3, [pc, #348]	; (8000f78 <HAL_GPIO_Init+0x2e8>)
 8000e1c:	6c5b      	ldr	r3, [r3, #68]	; 0x44
 8000e1e:	4a56      	ldr	r2, [pc, #344]	; (8000f78 <HAL_GPIO_Init+0x2e8>)
 8000e20:	f443 4380 	orr.w	r3, r3, #16384	; 0x4000
 8000e24:	6453      	str	r3, [r2, #68]	; 0x44
 8000e26:	4b54      	ldr	r3, [pc, #336]	; (8000f78 <HAL_GPIO_Init+0x2e8>)
 8000e28:	6c5b      	ldr	r3, [r3, #68]	; 0x44
 8000e2a:	f403 4380 	and.w	r3, r3, #16384	; 0x4000
 8000e2e:	60fb      	str	r3, [r7, #12]
 8000e30:	68fb      	ldr	r3, [r7, #12]
 8000e32:	4a52      	ldr	r2, [pc, #328]	; (8000f7c <HAL_GPIO_Init+0x2ec>)
 8000e34:	69fb      	ldr	r3, [r7, #28]
 8000e36:	089b      	lsrs	r3, r3, #2
 8000e38:	3302      	adds	r3, #2
 8000e3a:	f852 3023 	ldr.w	r3, [r2, r3, lsl #2]
 8000e3e:	61bb      	str	r3, [r7, #24]
 8000e40:	69fb      	ldr	r3, [r7, #28]
 8000e42:	f003 0303 	and.w	r3, r3, #3
 8000e46:	009b      	lsls	r3, r3, #2
 8000e48:	220f      	movs	r2, #15
 8000e4a:	fa02 f303 	lsl.w	r3, r2, r3
 8000e4e:	43db      	mvns	r3, r3
 8000e50:	69ba      	ldr	r2, [r7, #24]
 8000e52:	4013      	ands	r3, r2
 8000e54:	61bb      	str	r3, [r7, #24]
 8000e56:	687b      	ldr	r3, [r7, #4]
 8000e58:	4a49      	ldr	r2, [pc, #292]	; (8000f80 <HAL_GPIO_Init+0x2f0>)
 8000e5a:	4293      	cmp	r3, r2
 8000e5c:	d019      	beq.n	8000e92 <HAL_GPIO_Init+0x202>
 8000e5e:	687b      	ldr	r3, [r7, #4]
 8000e60:	4a48      	ldr	r2, [pc, #288]	; (8000f84 <HAL_GPIO_Init+0x2f4>)
 8000e62:	4293      	cmp	r3, r2
 8000e64:	d013      	beq.n	8000e8e <HAL_GPIO_Init+0x1fe>
 8000e66:	687b      	ldr	r3, [r7, #4]
 8000e68:	4a47      	ldr	r2, [pc, #284]	; (8000f88 <HAL_GPIO_Init+0x2f8>)
 8000e6a:	4293      	cmp	r3, r2
 8000e6c:	d00d      	beq.n	8000e8a <HAL_GPIO_Init+0x1fa>
 8000e6e:	687b      	ldr	r3, [r7, #4]
 8000e70:	4a46      	ldr	r2, [pc, #280]	; (8000f8c <HAL_GPIO_Init+0x2fc>)
 8000e72:	4293      	cmp	r3, r2
 8000e74:	d007      	beq.n	8000e86 <HAL_GPIO_Init+0x1f6>
 8000e76:	687b      	ldr	r3, [r7, #4]
 8000e78:	4a45      	ldr	r2, [pc, #276]	; (8000f90 <HAL_GPIO_Init+0x300>)
 8000e7a:	4293      	cmp	r3, r2
 8000e7c:	d101      	bne.n	8000e82 <HAL_GPIO_Init+0x1f2>
 8000e7e:	2304      	movs	r3, #4
 8000e80:	e008      	b.n	8000e94 <HAL_GPIO_Init+0x204>
 8000e82:	2307      	movs	r3, #7
 8000e84:	e006      	b.n	8000e94 <HAL_GPIO_Init+0x204>
 8000e86:	2303      	movs	r3, #3
 8000e88:	e004      	b.n	8000e94 <HAL_GPIO_Init+0x204>
 8000e8a:	2302      	movs	r3, #2
 8000e8c:	e002      	b.n	8000e94 <HAL_GPIO_Init+0x204>
 8000e8e:	2301      	movs	r3, #1
 8000e90:	e000      	b.n	8000e94 <HAL_GPIO_Init+0x204>
 8000e92:	2300      	movs	r3, #0
 8000e94:	69fa      	ldr	r2, [r7, #28]
 8000e96:	f002 0203 	and.w	r2, r2, #3
 8000e9a:	0092      	lsls	r2, r2, #2
 8000e9c:	4093      	lsls	r3, r2
 8000e9e:	69ba      	ldr	r2, [r7, #24]
 8000ea0:	4313      	orrs	r3, r2
 8000ea2:	61bb      	str	r3, [r7, #24]
 8000ea4:	4935      	ldr	r1, [pc, #212]	; (8000f7c <HAL_GPIO_Init+0x2ec>)
 8000ea6:	69fb      	ldr	r3, [r7, #28]
 8000ea8:	089b      	lsrs	r3, r3, #2
 8000eaa:	3302      	adds	r3, #2
 8000eac:	69ba      	ldr	r2, [r7, #24]
 8000eae:	f841 2023 	str.w	r2, [r1, r3, lsl #2]
 8000eb2:	4b38      	ldr	r3, [pc, #224]	; (8000f94 <HAL_GPIO_Init+0x304>)
 8000eb4:	681b      	ldr	r3, [r3, #0]
 8000eb6:	61bb      	str	r3, [r7, #24]
 8000eb8:	693b      	ldr	r3, [r7, #16]
 8000eba:	43db      	mvns	r3, r3
 8000ebc:	69ba      	ldr	r2, [r7, #24]
 8000ebe:	4013      	ands	r3, r2
 8000ec0:	61bb      	str	r3, [r7, #24]
 8000ec2:	683b      	ldr	r3, [r7, #0]
 8000ec4:	685b      	ldr	r3, [r3, #4]
 8000ec6:	f403 3380 	and.w	r3, r3, #65536	; 0x10000
 8000eca:	2b00      	cmp	r3, #0
 8000ecc:	d003      	beq.n	8000ed6 <HAL_GPIO_Init+0x246>
 8000ece:	69ba      	ldr	r2, [r7, #24]
 8000ed0:	693b      	ldr	r3, [r7, #16]
 8000ed2:	4313      	orrs	r3, r2
 8000ed4:	61bb      	str	r3, [r7, #24]
 8000ed6:	4a2f      	ldr	r2, [pc, #188]	; (8000f94 <HAL_GPIO_Init+0x304>)
 8000ed8:	69bb      	ldr	r3, [r7, #24]
 8000eda:	6013      	str	r3, [r2, #0]
 8000edc:	4b2d      	ldr	r3, [pc, #180]	; (8000f94 <HAL_GPIO_Init+0x304>)
 8000ede:	685b      	ldr	r3, [r3, #4]
 8000ee0:	61bb      	str	r3, [r7, #24]
 8000ee2:	693b      	ldr	r3, [r7, #16]
 8000ee4:	43db      	mvns	r3, r3
 8000ee6:	69ba      	ldr	r2, [r7, #24]
 8000ee8:	4013      	ands	r3, r2
 8000eea:	61bb      	str	r3, [r7, #24]
 8000eec:	683b      	ldr	r3, [r7, #0]
 8000eee:	685b      	ldr	r3, [r3, #4]
 8000ef0:	f403 3300 	and.w	r3, r3, #131072	; 0x20000
 8000ef4:	2b00      	cmp	r3, #0
 8000ef6:	d003      	beq.n	8000f00 <HAL_GPIO_Init+0x270>
 8000ef8:	69ba      	ldr	r2, [r7, #24]
 8000efa:	693b      	ldr	r3, [r7, #16]
 8000efc:	4313      	orrs	r3, r2
 8000efe:	61bb      	str	r3, [r7, #24]
 8000f00:	4a24      	ldr	r2, [pc, #144]	; (8000f94 <HAL_GPIO_Init+0x304>)
 8000f02:	69bb      	ldr	r3, [r7, #24]
 8000f04:	6053      	str	r3, [r2, #4]
 8000f06:	4b23      	ldr	r3, [pc, #140]	; (8000f94 <HAL_GPIO_Init+0x304>)
 8000f08:	689b      	ldr	r3, [r3, #8]
 8000f0a:	61bb      	str	r3, [r7, #24]
 8000f0c:	693b      	ldr	r3, [r7, #16]
 8000f0e:	43db      	mvns	r3, r3
 8000f10:	69ba      	ldr	r2, [r7, #24]
 8000f12:	4013      	ands	r3, r2
 8000f14:	61bb      	str	r3, [r7, #24]
 8000f16:	683b      	ldr	r3, [r7, #0]
 8000f18:	685b      	ldr	r3, [r3, #4]
 8000f1a:	f403 1380 	and.w	r3, r3, #1048576	; 0x100000
 8000f1e:	2b00      	cmp	r3, #0
 8000f20:	d003      	beq.n	8000f2a <HAL_GPIO_Init+0x29a>
 8000f22:	69ba      	ldr	r2, [r7, #24]
 8000f24:	693b      	ldr	r3, [r7, #16]
 8000f26:	4313      	orrs	r3, r2
 8000f28:	61bb      	str	r3, [r7, #24]
 8000f2a:	4a1a      	ldr	r2, [pc, #104]	; (8000f94 <HAL_GPIO_Init+0x304>)
 8000f2c:	69bb      	ldr	r3, [r7, #24]
 8000f2e:	6093      	str	r3, [r2, #8]
 8000f30:	4b18      	ldr	r3, [pc, #96]	; (8000f94 <HAL_GPIO_Init+0x304>)
 8000f32:	68db      	ldr	r3, [r3, #12]
 8000f34:	61bb      	str	r3, [r7, #24]
 8000f36:	693b      	ldr	r3, [r7, #16]
 8000f38:	43db      	mvns	r3, r3
 8000f3a:	69ba      	ldr	r2, [r7, #24]
 8000f3c:	4013      	ands	r3, r2
 8000f3e:	61bb      	str	r3, [r7, #24]
 8000f40:	683b      	ldr	r3, [r7, #0]
 8000f42:	685b      	ldr	r3, [r3, #4]
 8000f44:	f403 1300 	and.w	r3, r3, #2097152	; 0x200000
 8000f48:	2b00      	cmp	r3, #0
 8000f4a:	d003      	beq.n	8000f54 <HAL_GPIO_Init+0x2c4>
 8000f4c:	69ba      	ldr	r2, [r7, #24]
 8000f4e:	693b      	ldr	r3, [r7, #16]
 8000f50:	4313      	orrs	r3, r2
 8000f52:	61bb      	str	r3, [r7, #24]
 8000f54:	4a0f      	ldr	r2, [pc, #60]	; (8000f94 <HAL_GPIO_Init+0x304>)
 8000f56:	69bb      	ldr	r3, [r7, #24]
 8000f58:	60d3      	str	r3, [r2, #12]
 8000f5a:	69fb      	ldr	r3, [r7, #28]
 8000f5c:	3301      	adds	r3, #1
 8000f5e:	61fb      	str	r3, [r7, #28]
 8000f60:	69fb      	ldr	r3, [r7, #28]
 8000f62:	2b0f      	cmp	r3, #15
 8000f64:	f67f aea2 	bls.w	8000cac <HAL_GPIO_Init+0x1c>
 8000f68:	bf00      	nop
 8000f6a:	bf00      	nop
 8000f6c:	3724      	adds	r7, #36	; 0x24
 8000f6e:	46bd      	mov	sp, r7
 8000f70:	f85d 7b04 	ldr.w	r7, [sp], #4
 8000f74:	4770      	bx	lr
 8000f76:	bf00      	nop
 8000f78:	40023800 	.word	0x40023800
 8000f7c:	40013800 	.word	0x40013800
 8000f80:	40020000 	.word	0x40020000
 8000f84:	40020400 	.word	0x40020400
 8000f88:	40020800 	.word	0x40020800
 8000f8c:	40020c00 	.word	0x40020c00
 8000f90:	40021000 	.word	0x40021000
 8000f94:	40013c00 	.word	0x40013c00

08000f98 <HAL_RCC_OscConfig>:
 8000f98:	b580      	push	{r7, lr}
 8000f9a:	b086      	sub	sp, #24
 8000f9c:	af00      	add	r7, sp, #0
 8000f9e:	6078      	str	r0, [r7, #4]
 8000fa0:	687b      	ldr	r3, [r7, #4]
 8000fa2:	2b00      	cmp	r3, #0
 8000fa4:	d101      	bne.n	8000faa <HAL_RCC_OscConfig+0x12>
 8000fa6:	2301      	movs	r3, #1
 8000fa8:	e264      	b.n	8001474 <HAL_RCC_OscConfig+0x4dc>
 8000faa:	687b      	ldr	r3, [r7, #4]
 8000fac:	681b      	ldr	r3, [r3, #0]
 8000fae:	f003 0301 	and.w	r3, r3, #1
 8000fb2:	2b00      	cmp	r3, #0
 8000fb4:	d075      	beq.n	80010a2 <HAL_RCC_OscConfig+0x10a>
 8000fb6:	4ba3      	ldr	r3, [pc, #652]	; (8001244 <HAL_RCC_OscConfig+0x2ac>)
 8000fb8:	689b      	ldr	r3, [r3, #8]
 8000fba:	f003 030c 	and.w	r3, r3, #12
 8000fbe:	2b04      	cmp	r3, #4
 8000fc0:	d00c      	beq.n	8000fdc <HAL_RCC_OscConfig+0x44>
 8000fc2:	4ba0      	ldr	r3, [pc, #640]	; (8001244 <HAL_RCC_OscConfig+0x2ac>)
 8000fc4:	689b      	ldr	r3, [r3, #8]
 8000fc6:	f003 030c 	and.w	r3, r3, #12
 8000fca:	2b08      	cmp	r3, #8
 8000fcc:	d112      	bne.n	8000ff4 <HAL_RCC_OscConfig+0x5c>
 8000fce:	4b9d      	ldr	r3, [pc, #628]	; (8001244 <HAL_RCC_OscConfig+0x2ac>)
 8000fd0:	685b      	ldr	r3, [r3, #4]
 8000fd2:	f403 0380 	and.w	r3, r3, #4194304	; 0x400000
 8000fd6:	f5b3 0f80 	cmp.w	r3, #4194304	; 0x400000
 8000fda:	d10b      	bne.n	8000ff4 <HAL_RCC_OscConfig+0x5c>
 8000fdc:	4b99      	ldr	r3, [pc, #612]	; (8001244 <HAL_RCC_OscConfig+0x2ac>)
 8000fde:	681b      	ldr	r3, [r3, #0]
 8000fe0:	f403 3300 	and.w	r3, r3, #131072	; 0x20000
 8000fe4:	2b00      	cmp	r3, #0
 8000fe6:	d05b      	beq.n	80010a0 <HAL_RCC_OscConfig+0x108>
 8000fe8:	687b      	ldr	r3, [r7, #4]
 8000fea:	685b      	ldr	r3, [r3, #4]
 8000fec:	2b00      	cmp	r3, #0
 8000fee:	d157      	bne.n	80010a0 <HAL_RCC_OscConfig+0x108>
 8000ff0:	2301      	movs	r3, #1
 8000ff2:	e23f      	b.n	8001474 <HAL_RCC_OscConfig+0x4dc>
 8000ff4:	687b      	ldr	r3, [r7, #4]
 8000ff6:	685b      	ldr	r3, [r3, #4]
 8000ff8:	f5b3 3f80 	cmp.w	r3, #65536	; 0x10000
 8000ffc:	d106      	bne.n	800100c <HAL_RCC_OscConfig+0x74>
 8000ffe:	4b91      	ldr	r3, [pc, #580]	; (8001244 <HAL_RCC_OscConfig+0x2ac>)
 8001000:	681b      	ldr	r3, [r3, #0]
 8001002:	4a90      	ldr	r2, [pc, #576]	; (8001244 <HAL_RCC_OscConfig+0x2ac>)
 8001004:	f443 3380 	orr.w	r3, r3, #65536	; 0x10000
 8001008:	6013      	str	r3, [r2, #0]
 800100a:	e01d      	b.n	8001048 <HAL_RCC_OscConfig+0xb0>
 800100c:	687b      	ldr	r3, [r7, #4]
 800100e:	685b      	ldr	r3, [r3, #4]
 8001010:	f5b3 2fa0 	cmp.w	r3, #327680	; 0x50000
 8001014:	d10c      	bne.n	8001030 <HAL_RCC_OscConfig+0x98>
 8001016:	4b8b      	ldr	r3, [pc, #556]	; (8001244 <HAL_RCC_OscConfig+0x2ac>)
 8001018:	681b      	ldr	r3, [r3, #0]
 800101a:	4a8a      	ldr	r2, [pc, #552]	; (8001244 <HAL_RCC_OscConfig+0x2ac>)
 800101c:	f443 2380 	orr.w	r3, r3, #262144	; 0x40000
 8001020:	6013      	str	r3, [r2, #0]
 8001022:	4b88      	ldr	r3, [pc, #544]	; (8001244 <HAL_RCC_OscConfig+0x2ac>)
 8001024:	681b      	ldr	r3, [r3, #0]
 8001026:	4a87      	ldr	r2, [pc, #540]	; (8001244 <HAL_RCC_OscConfig+0x2ac>)
 8001028:	f443 3380 	orr.w	r3, r3, #65536	; 0x10000
 800102c:	6013      	str	r3, [r2, #0]
 800102e:	e00b      	b.n	8001048 <HAL_RCC_OscConfig+0xb0>
 8001030:	4b84      	ldr	r3, [pc, #528]	; (8001244 <HAL_RCC_OscConfig+0x2ac>)
 8001032:	681b      	ldr	r3, [r3, #0]
 8001034:	4a83      	ldr	r2, [pc, #524]	; (8001244 <HAL_RCC_OscConfig+0x2ac>)
 8001036:	f423 3380 	bic.w	r3, r3, #65536	; 0x10000
 800103a:	6013      	str	r3, [r2, #0]
 800103c:	4b81      	ldr	r3, [pc, #516]	; (8001244 <HAL_RCC_OscConfig+0x2ac>)
 800103e:	681b      	ldr	r3, [r3, #0]
 8001040:	4a80      	ldr	r2, [pc, #512]	; (8001244 <HAL_RCC_OscConfig+0x2ac>)
 8001042:	f423 2380 	bic.w	r3, r3, #262144	; 0x40000
 8001046:	6013      	str	r3, [r2, #0]
 8001048:	687b      	ldr	r3, [r7, #4]
 800104a:	685b      	ldr	r3, [r3, #4]
 800104c:	2b00      	cmp	r3, #0
 800104e:	d013      	beq.n	8001078 <HAL_RCC_OscConfig+0xe0>
 8001050:	f7ff fd30 	bl	8000ab4 <HAL_GetTick>
 8001054:	6138      	str	r0, [r7, #16]
 8001056:	e008      	b.n	800106a <HAL_RCC_OscConfig+0xd2>
 8001058:	f7ff fd2c 	bl	8000ab4 <HAL_GetTick>
 800105c:	4602      	mov	r2, r0
 800105e:	693b      	ldr	r3, [r7, #16]
 8001060:	1ad3      	subs	r3, r2, r3
 8001062:	2b64      	cmp	r3, #100	; 0x64
 8001064:	d901      	bls.n	800106a <HAL_RCC_OscConfig+0xd2>
 8001066:	2303      	movs	r3, #3
 8001068:	e204      	b.n	8001474 <HAL_RCC_OscConfig+0x4dc>
 800106a:	4b76      	ldr	r3, [pc, #472]	; (8001244 <HAL_RCC_OscConfig+0x2ac>)
 800106c:	681b      	ldr	r3, [r3, #0]
 800106e:	f403 3300 	and.w	r3, r3, #131072	; 0x20000
 8001072:	2b00      	cmp	r3, #0
 8001074:	d0f0      	beq.n	8001058 <HAL_RCC_OscConfig+0xc0>
 8001076:	e014      	b.n	80010a2 <HAL_RCC_OscConfig+0x10a>
 8001078:	f7ff fd1c 	bl	8000ab4 <HAL_GetTick>
 800107c:	6138      	str	r0, [r7, #16]
 800107e:	e008      	b.n	8001092 <HAL_RCC_OscConfig+0xfa>
 8001080:	f7ff fd18 	bl	8000ab4 <HAL_GetTick>
 8001084:	4602      	mov	r2, r0
 8001086:	693b      	ldr	r3, [r7, #16]
 8001088:	1ad3      	subs	r3, r2, r3
 800108a:	2b64      	cmp	r3, #100	; 0x64
 800108c:	d901      	bls.n	8001092 <HAL_RCC_OscConfig+0xfa>
 800108e:	2303      	movs	r3, #3
 8001090:	e1f0      	b.n	8001474 <HAL_RCC_OscConfig+0x4dc>
 8001092:	4b6c      	ldr	r3, [pc, #432]	; (8001244 <HAL_RCC_OscConfig+0x2ac>)
 8001094:	681b      	ldr	r3, [r3, #0]
 8001096:	f403 3300 	and.w	r3, r3, #131072	; 0x20000
 800109a:	2b00      	cmp	r3, #0
 800109c:	d1f0      	bne.n	8001080 <HAL_RCC_OscConfig+0xe8>
 800109e:	e000      	b.n	80010a2 <HAL_RCC_OscConfig+0x10a>
 80010a0:	bf00      	nop
 80010a2:	687b      	ldr	r3, [r7, #4]
 80010a4:	681b      	ldr	r3, [r3, #0]
 80010a6:	f003 0302 	and.w	r3, r3, #2
 80010aa:	2b00      	cmp	r3, #0
 80010ac:	d063      	beq.n	8001176 <HAL_RCC_OscConfig+0x1de>
 80010ae:	4b65      	ldr	r3, [pc, #404]	; (8001244 <HAL_RCC_OscConfig+0x2ac>)
 80010b0:	689b      	ldr	r3, [r3, #8]
 80010b2:	f003 030c 	and.w	r3, r3, #12
 80010b6:	2b00      	cmp	r3, #0
 80010b8:	d00b      	beq.n	80010d2 <HAL_RCC_OscConfig+0x13a>
 80010ba:	4b62      	ldr	r3, [pc, #392]	; (8001244 <HAL_RCC_OscConfig+0x2ac>)
 80010bc:	689b      	ldr	r3, [r3, #8]
 80010be:	f003 030c 	and.w	r3, r3, #12
 80010c2:	2b08      	cmp	r3, #8
 80010c4:	d11c      	bne.n	8001100 <HAL_RCC_OscConfig+0x168>
 80010c6:	4b5f      	ldr	r3, [pc, #380]	; (8001244 <HAL_RCC_OscConfig+0x2ac>)
 80010c8:	685b      	ldr	r3, [r3, #4]
 80010ca:	f403 0380 	and.w	r3, r3, #4194304	; 0x400000
 80010ce:	2b00      	cmp	r3, #0
 80010d0:	d116      	bne.n	8001100 <HAL_RCC_OscConfig+0x168>
 80010d2:	4b5c      	ldr	r3, [pc, #368]	; (8001244 <HAL_RCC_OscConfig+0x2ac>)
 80010d4:	681b      	ldr	r3, [r3, #0]
 80010d6:	f003 0302 	and.w	r3, r3, #2
 80010da:	2b00      	cmp	r3, #0
 80010dc:	d005      	beq.n	80010ea <HAL_RCC_OscConfig+0x152>
 80010de:	687b      	ldr	r3, [r7, #4]
 80010e0:	68db      	ldr	r3, [r3, #12]
 80010e2:	2b01      	cmp	r3, #1
 80010e4:	d001      	beq.n	80010ea <HAL_RCC_OscConfig+0x152>
 80010e6:	2301      	movs	r3, #1
 80010e8:	e1c4      	b.n	8001474 <HAL_RCC_OscConfig+0x4dc>
 80010ea:	4b56      	ldr	r3, [pc, #344]	; (8001244 <HAL_RCC_OscConfig+0x2ac>)
 80010ec:	681b      	ldr	r3, [r3, #0]
 80010ee:	f023 02f8 	bic.w	r2, r3, #248	; 0xf8
 80010f2:	687b      	ldr	r3, [r7, #4]
 80010f4:	691b      	ldr	r3, [r3, #16]
 80010f6:	00db      	lsls	r3, r3, #3
 80010f8:	4952      	ldr	r1, [pc, #328]	; (8001244 <HAL_RCC_OscConfig+0x2ac>)
 80010fa:	4313      	orrs	r3, r2
 80010fc:	600b      	str	r3, [r1, #0]
 80010fe:	e03a      	b.n	8001176 <HAL_RCC_OscConfig+0x1de>
 8001100:	687b      	ldr	r3, [r7, #4]
 8001102:	68db      	ldr	r3, [r3, #12]
 8001104:	2b00      	cmp	r3, #0
 8001106:	d020      	beq.n	800114a <HAL_RCC_OscConfig+0x1b2>
 8001108:	4b4f      	ldr	r3, [pc, #316]	; (8001248 <HAL_RCC_OscConfig+0x2b0>)
 800110a:	2201      	movs	r2, #1
 800110c:	601a      	str	r2, [r3, #0]
 800110e:	f7ff fcd1 	bl	8000ab4 <HAL_GetTick>
 8001112:	6138      	str	r0, [r7, #16]
 8001114:	e008      	b.n	8001128 <HAL_RCC_OscConfig+0x190>
 8001116:	f7ff fccd 	bl	8000ab4 <HAL_GetTick>
 800111a:	4602      	mov	r2, r0
 800111c:	693b      	ldr	r3, [r7, #16]
 800111e:	1ad3      	subs	r3, r2, r3
 8001120:	2b02      	cmp	r3, #2
 8001122:	d901      	bls.n	8001128 <HAL_RCC_OscConfig+0x190>
 8001124:	2303      	movs	r3, #3
 8001126:	e1a5      	b.n	8001474 <HAL_RCC_OscConfig+0x4dc>
 8001128:	4b46      	ldr	r3, [pc, #280]	; (8001244 <HAL_RCC_OscConfig+0x2ac>)
 800112a:	681b      	ldr	r3, [r3, #0]
 800112c:	f003 0302 	and.w	r3, r3, #2
 8001130:	2b00      	cmp	r3, #0
 8001132:	d0f0      	beq.n	8001116 <HAL_RCC_OscConfig+0x17e>
 8001134:	4b43      	ldr	r3, [pc, #268]	; (8001244 <HAL_RCC_OscConfig+0x2ac>)
 8001136:	681b      	ldr	r3, [r3, #0]
 8001138:	f023 02f8 	bic.w	r2, r3, #248	; 0xf8
 800113c:	687b      	ldr	r3, [r7, #4]
 800113e:	691b      	ldr	r3, [r3, #16]
 8001140:	00db      	lsls	r3, r3, #3
 8001142:	4940      	ldr	r1, [pc, #256]	; (8001244 <HAL_RCC_OscConfig+0x2ac>)
 8001144:	4313      	orrs	r3, r2
 8001146:	600b      	str	r3, [r1, #0]
 8001148:	e015      	b.n	8001176 <HAL_RCC_OscConfig+0x1de>
 800114a:	4b3f      	ldr	r3, [pc, #252]	; (8001248 <HAL_RCC_OscConfig+0x2b0>)
 800114c:	2200      	movs	r2, #0
 800114e:	601a      	str	r2, [r3, #0]
 8001150:	f7ff fcb0 	bl	8000ab4 <HAL_GetTick>
 8001154:	6138      	str	r0, [r7, #16]
 8001156:	e008      	b.n	800116a <HAL_RCC_OscConfig+0x1d2>
 8001158:	f7ff fcac 	bl	8000ab4 <HAL_GetTick>
 800115c:	4602      	mov	r2, r0
 800115e:	693b      	ldr	r3, [r7, #16]
 8001160:	1ad3      	subs	r3, r2, r3
 8001162:	2b02      	cmp	r3, #2
 8001164:	d901      	bls.n	800116a <HAL_RCC_OscConfig+0x1d2>
 8001166:	2303      	movs	r3, #3
 8001168:	e184      	b.n	8001474 <HAL_RCC_OscConfig+0x4dc>
 800116a:	4b36      	ldr	r3, [pc, #216]	; (8001244 <HAL_RCC_OscConfig+0x2ac>)
 800116c:	681b      	ldr	r3, [r3, #0]
 800116e:	f003 0302 	and.w	r3, r3, #2
 8001172:	2b00      	cmp	r3, #0
 8001174:	d1f0      	bne.n	8001158 <HAL_RCC_OscConfig+0x1c0>
 8001176:	687b      	ldr	r3, [r7, #4]
 8001178:	681b      	ldr	r3, [r3, #0]
 800117a:	f003 0308 	and.w	r3, r3, #8
 800117e:	2b00      	cmp	r3, #0
 8001180:	d030      	beq.n	80011e4 <HAL_RCC_OscConfig+0x24c>
 8001182:	687b      	ldr	r3, [r7, #4]
 8001184:	695b      	ldr	r3, [r3, #20]
 8001186:	2b00      	cmp	r3, #0
 8001188:	d016      	beq.n	80011b8 <HAL_RCC_OscConfig+0x220>
 800118a:	4b30      	ldr	r3, [pc, #192]	; (800124c <HAL_RCC_OscConfig+0x2b4>)
 800118c:	2201      	movs	r2, #1
 800118e:	601a      	str	r2, [r3, #0]
 8001190:	f7ff fc90 	bl	8000ab4 <HAL_GetTick>
 8001194:	6138      	str	r0, [r7, #16]
 8001196:	e008      	b.n	80011aa <HAL_RCC_OscConfig+0x212>
 8001198:	f7ff fc8c 	bl	8000ab4 <HAL_GetTick>
 800119c:	4602      	mov	r2, r0
 800119e:	693b      	ldr	r3, [r7, #16]
 80011a0:	1ad3      	subs	r3, r2, r3
 80011a2:	2b02      	cmp	r3, #2
 80011a4:	d901      	bls.n	80011aa <HAL_RCC_OscConfig+0x212>
 80011a6:	2303      	movs	r3, #3
 80011a8:	e164      	b.n	8001474 <HAL_RCC_OscConfig+0x4dc>
 80011aa:	4b26      	ldr	r3, [pc, #152]	; (8001244 <HAL_RCC_OscConfig+0x2ac>)
 80011ac:	6f5b      	ldr	r3, [r3, #116]	; 0x74
 80011ae:	f003 0302 	and.w	r3, r3, #2
 80011b2:	2b00      	cmp	r3, #0
 80011b4:	d0f0      	beq.n	8001198 <HAL_RCC_OscConfig+0x200>
 80011b6:	e015      	b.n	80011e4 <HAL_RCC_OscConfig+0x24c>
 80011b8:	4b24      	ldr	r3, [pc, #144]	; (800124c <HAL_RCC_OscConfig+0x2b4>)
 80011ba:	2200      	movs	r2, #0
 80011bc:	601a      	str	r2, [r3, #0]
 80011be:	f7ff fc79 	bl	8000ab4 <HAL_GetTick>
 80011c2:	6138      	str	r0, [r7, #16]
 80011c4:	e008      	b.n	80011d8 <HAL_RCC_OscConfig+0x240>
 80011c6:	f7ff fc75 	bl	8000ab4 <HAL_GetTick>
 80011ca:	4602      	mov	r2, r0
 80011cc:	693b      	ldr	r3, [r7, #16]
 80011ce:	1ad3      	subs	r3, r2, r3
 80011d0:	2b02      	cmp	r3, #2
 80011d2:	d901      	bls.n	80011d8 <HAL_RCC_OscConfig+0x240>
 80011d4:	2303      	movs	r3, #3
 80011d6:	e14d      	b.n	8001474 <HAL_RCC_OscConfig+0x4dc>
 80011d8:	4b1a      	ldr	r3, [pc, #104]	; (8001244 <HAL_RCC_OscConfig+0x2ac>)
 80011da:	6f5b      	ldr	r3, [r3, #116]	; 0x74
 80011dc:	f003 0302 	and.w	r3, r3, #2
 80011e0:	2b00      	cmp	r3, #0
 80011e2:	d1f0      	bne.n	80011c6 <HAL_RCC_OscConfig+0x22e>
 80011e4:	687b      	ldr	r3, [r7, #4]
 80011e6:	681b      	ldr	r3, [r3, #0]
 80011e8:	f003 0304 	and.w	r3, r3, #4
 80011ec:	2b00      	cmp	r3, #0
 80011ee:	f000 80a0 	beq.w	8001332 <HAL_RCC_OscConfig+0x39a>
 80011f2:	2300      	movs	r3, #0
 80011f4:	75fb      	strb	r3, [r7, #23]
 80011f6:	4b13      	ldr	r3, [pc, #76]	; (8001244 <HAL_RCC_OscConfig+0x2ac>)
 80011f8:	6c1b      	ldr	r3, [r3, #64]	; 0x40
 80011fa:	f003 5380 	and.w	r3, r3, #268435456	; 0x10000000
 80011fe:	2b00      	cmp	r3, #0
 8001200:	d10f      	bne.n	8001222 <HAL_RCC_OscConfig+0x28a>
 8001202:	2300      	movs	r3, #0
 8001204:	60bb      	str	r3, [r7, #8]
 8001206:	4b0f      	ldr	r3, [pc, #60]	; (8001244 <HAL_RCC_OscConfig+0x2ac>)
 8001208:	6c1b      	ldr	r3, [r3, #64]	; 0x40
 800120a:	4a0e      	ldr	r2, [pc, #56]	; (8001244 <HAL_RCC_OscConfig+0x2ac>)
 800120c:	f043 5380 	orr.w	r3, r3, #268435456	; 0x10000000
 8001210:	6413      	str	r3, [r2, #64]	; 0x40
 8001212:	4b0c      	ldr	r3, [pc, #48]	; (8001244 <HAL_RCC_OscConfig+0x2ac>)
 8001214:	6c1b      	ldr	r3, [r3, #64]	; 0x40
 8001216:	f003 5380 	and.w	r3, r3, #268435456	; 0x10000000
 800121a:	60bb      	str	r3, [r7, #8]
 800121c:	68bb      	ldr	r3, [r7, #8]
 800121e:	2301      	movs	r3, #1
 8001220:	75fb      	strb	r3, [r7, #23]
 8001222:	4b0b      	ldr	r3, [pc, #44]	; (8001250 <HAL_RCC_OscConfig+0x2b8>)
 8001224:	681b      	ldr	r3, [r3, #0]
 8001226:	f403 7380 	and.w	r3, r3, #256	; 0x100
 800122a:	2b00      	cmp	r3, #0
 800122c:	d121      	bne.n	8001272 <HAL_RCC_OscConfig+0x2da>
 800122e:	4b08      	ldr	r3, [pc, #32]	; (8001250 <HAL_RCC_OscConfig+0x2b8>)
 8001230:	681b      	ldr	r3, [r3, #0]
 8001232:	4a07      	ldr	r2, [pc, #28]	; (8001250 <HAL_RCC_OscConfig+0x2b8>)
 8001234:	f443 7380 	orr.w	r3, r3, #256	; 0x100
 8001238:	6013      	str	r3, [r2, #0]
 800123a:	f7ff fc3b 	bl	8000ab4 <HAL_GetTick>
 800123e:	6138      	str	r0, [r7, #16]
 8001240:	e011      	b.n	8001266 <HAL_RCC_OscConfig+0x2ce>
 8001242:	bf00      	nop
 8001244:	40023800 	.word	0x40023800
 8001248:	42470000 	.word	0x42470000
 800124c:	42470e80 	.word	0x42470e80
 8001250:	40007000 	.word	0x40007000
 8001254:	f7ff fc2e 	bl	8000ab4 <HAL_GetTick>
 8001258:	4602      	mov	r2, r0
 800125a:	693b      	ldr	r3, [r7, #16]
 800125c:	1ad3      	subs	r3, r2, r3
 800125e:	2b02      	cmp	r3, #2
 8001260:	d901      	bls.n	8001266 <HAL_RCC_OscConfig+0x2ce>
 8001262:	2303      	movs	r3, #3
 8001264:	e106      	b.n	8001474 <HAL_RCC_OscConfig+0x4dc>
 8001266:	4b85      	ldr	r3, [pc, #532]	; (800147c <HAL_RCC_OscConfig+0x4e4>)
 8001268:	681b      	ldr	r3, [r3, #0]
 800126a:	f403 7380 	and.w	r3, r3, #256	; 0x100
 800126e:	2b00      	cmp	r3, #0
 8001270:	d0f0      	beq.n	8001254 <HAL_RCC_OscConfig+0x2bc>
 8001272:	687b      	ldr	r3, [r7, #4]
 8001274:	689b      	ldr	r3, [r3, #8]
 8001276:	2b01      	cmp	r3, #1
 8001278:	d106      	bne.n	8001288 <HAL_RCC_OscConfig+0x2f0>
 800127a:	4b81      	ldr	r3, [pc, #516]	; (8001480 <HAL_RCC_OscConfig+0x4e8>)
 800127c:	6f1b      	ldr	r3, [r3, #112]	; 0x70
 800127e:	4a80      	ldr	r2, [pc, #512]	; (8001480 <HAL_RCC_OscConfig+0x4e8>)
 8001280:	f043 0301 	orr.w	r3, r3, #1
 8001284:	6713      	str	r3, [r2, #112]	; 0x70
 8001286:	e01c      	b.n	80012c2 <HAL_RCC_OscConfig+0x32a>
 8001288:	687b      	ldr	r3, [r7, #4]
 800128a:	689b      	ldr	r3, [r3, #8]
 800128c:	2b05      	cmp	r3, #5
 800128e:	d10c      	bne.n	80012aa <HAL_RCC_OscConfig+0x312>
 8001290:	4b7b      	ldr	r3, [pc, #492]	; (8001480 <HAL_RCC_OscConfig+0x4e8>)
 8001292:	6f1b      	ldr	r3, [r3, #112]	; 0x70
 8001294:	4a7a      	ldr	r2, [pc, #488]	; (8001480 <HAL_RCC_OscConfig+0x4e8>)
 8001296:	f043 0304 	orr.w	r3, r3, #4
 800129a:	6713      	str	r3, [r2, #112]	; 0x70
 800129c:	4b78      	ldr	r3, [pc, #480]	; (8001480 <HAL_RCC_OscConfig+0x4e8>)
 800129e:	6f1b      	ldr	r3, [r3, #112]	; 0x70
 80012a0:	4a77      	ldr	r2, [pc, #476]	; (8001480 <HAL_RCC_OscConfig+0x4e8>)
 80012a2:	f043 0301 	orr.w	r3, r3, #1
 80012a6:	6713      	str	r3, [r2, #112]	; 0x70
 80012a8:	e00b      	b.n	80012c2 <HAL_RCC_OscConfig+0x32a>
 80012aa:	4b75      	ldr	r3, [pc, #468]	; (8001480 <HAL_RCC_OscConfig+0x4e8>)
 80012ac:	6f1b      	ldr	r3, [r3, #112]	; 0x70
 80012ae:	4a74      	ldr	r2, [pc, #464]	; (8001480 <HAL_RCC_OscConfig+0x4e8>)
 80012b0:	f023 0301 	bic.w	r3, r3, #1
 80012b4:	6713      	str	r3, [r2, #112]	; 0x70
 80012b6:	4b72      	ldr	r3, [pc, #456]	; (8001480 <HAL_RCC_OscConfig+0x4e8>)
 80012b8:	6f1b      	ldr	r3, [r3, #112]	; 0x70
 80012ba:	4a71      	ldr	r2, [pc, #452]	; (8001480 <HAL_RCC_OscConfig+0x4e8>)
 80012bc:	f023 0304 	bic.w	r3, r3, #4
 80012c0:	6713      	str	r3, [r2, #112]	; 0x70
 80012c2:	687b      	ldr	r3, [r7, #4]
 80012c4:	689b      	ldr	r3, [r3, #8]
 80012c6:	2b00      	cmp	r3, #0
 80012c8:	d015      	beq.n	80012f6 <HAL_RCC_OscConfig+0x35e>
 80012ca:	f7ff fbf3 	bl	8000ab4 <HAL_GetTick>
 80012ce:	6138      	str	r0, [r7, #16]
 80012d0:	e00a      	b.n	80012e8 <HAL_RCC_OscConfig+0x350>
 80012d2:	f7ff fbef 	bl	8000ab4 <HAL_GetTick>
 80012d6:	4602      	mov	r2, r0
 80012d8:	693b      	ldr	r3, [r7, #16]
 80012da:	1ad3      	subs	r3, r2, r3
 80012dc:	f241 3288 	movw	r2, #5000	; 0x1388
 80012e0:	4293      	cmp	r3, r2
 80012e2:	d901      	bls.n	80012e8 <HAL_RCC_OscConfig+0x350>
 80012e4:	2303      	movs	r3, #3
 80012e6:	e0c5      	b.n	8001474 <HAL_RCC_OscConfig+0x4dc>
 80012e8:	4b65      	ldr	r3, [pc, #404]	; (8001480 <HAL_RCC_OscConfig+0x4e8>)
 80012ea:	6f1b      	ldr	r3, [r3, #112]	; 0x70
 80012ec:	f003 0302 	and.w	r3, r3, #2
 80012f0:	2b00      	cmp	r3, #0
 80012f2:	d0ee      	beq.n	80012d2 <HAL_RCC_OscConfig+0x33a>
 80012f4:	e014      	b.n	8001320 <HAL_RCC_OscConfig+0x388>
 80012f6:	f7ff fbdd 	bl	8000ab4 <HAL_GetTick>
 80012fa:	6138      	str	r0, [r7, #16]
 80012fc:	e00a      	b.n	8001314 <HAL_RCC_OscConfig+0x37c>
 80012fe:	f7ff fbd9 	bl	8000ab4 <HAL_GetTick>
 8001302:	4602      	mov	r2, r0
 8001304:	693b      	ldr	r3, [r7, #16]
 8001306:	1ad3      	subs	r3, r2, r3
 8001308:	f241 3288 	movw	r2, #5000	; 0x1388
 800130c:	4293      	cmp	r3, r2
 800130e:	d901      	bls.n	8001314 <HAL_RCC_OscConfig+0x37c>
 8001310:	2303      	movs	r3, #3
 8001312:	e0af      	b.n	8001474 <HAL_RCC_OscConfig+0x4dc>
 8001314:	4b5a      	ldr	r3, [pc, #360]	; (8001480 <HAL_RCC_OscConfig+0x4e8>)
 8001316:	6f1b      	ldr	r3, [r3, #112]	; 0x70
 8001318:	f003 0302 	and.w	r3, r3, #2
 800131c:	2b00      	cmp	r3, #0
 800131e:	d1ee      	bne.n	80012fe <HAL_RCC_OscConfig+0x366>
 8001320:	7dfb      	ldrb	r3, [r7, #23]
 8001322:	2b01      	cmp	r3, #1
 8001324:	d105      	bne.n	8001332 <HAL_RCC_OscConfig+0x39a>
 8001326:	4b56      	ldr	r3, [pc, #344]	; (8001480 <HAL_RCC_OscConfig+0x4e8>)
 8001328:	6c1b      	ldr	r3, [r3, #64]	; 0x40
 800132a:	4a55      	ldr	r2, [pc, #340]	; (8001480 <HAL_RCC_OscConfig+0x4e8>)
 800132c:	f023 5380 	bic.w	r3, r3, #268435456	; 0x10000000
 8001330:	6413      	str	r3, [r2, #64]	; 0x40
 8001332:	687b      	ldr	r3, [r7, #4]
 8001334:	699b      	ldr	r3, [r3, #24]
 8001336:	2b00      	cmp	r3, #0
 8001338:	f000 809b 	beq.w	8001472 <HAL_RCC_OscConfig+0x4da>
 800133c:	4b50      	ldr	r3, [pc, #320]	; (8001480 <HAL_RCC_OscConfig+0x4e8>)
 800133e:	689b      	ldr	r3, [r3, #8]
 8001340:	f003 030c 	and.w	r3, r3, #12
 8001344:	2b08      	cmp	r3, #8
 8001346:	d05c      	beq.n	8001402 <HAL_RCC_OscConfig+0x46a>
 8001348:	687b      	ldr	r3, [r7, #4]
 800134a:	699b      	ldr	r3, [r3, #24]
 800134c:	2b02      	cmp	r3, #2
 800134e:	d141      	bne.n	80013d4 <HAL_RCC_OscConfig+0x43c>
 8001350:	4b4c      	ldr	r3, [pc, #304]	; (8001484 <HAL_RCC_OscConfig+0x4ec>)
 8001352:	2200      	movs	r2, #0
 8001354:	601a      	str	r2, [r3, #0]
 8001356:	f7ff fbad 	bl	8000ab4 <HAL_GetTick>
 800135a:	6138      	str	r0, [r7, #16]
 800135c:	e008      	b.n	8001370 <HAL_RCC_OscConfig+0x3d8>
 800135e:	f7ff fba9 	bl	8000ab4 <HAL_GetTick>
 8001362:	4602      	mov	r2, r0
 8001364:	693b      	ldr	r3, [r7, #16]
 8001366:	1ad3      	subs	r3, r2, r3
 8001368:	2b02      	cmp	r3, #2
 800136a:	d901      	bls.n	8001370 <HAL_RCC_OscConfig+0x3d8>
 800136c:	2303      	movs	r3, #3
 800136e:	e081      	b.n	8001474 <HAL_RCC_OscConfig+0x4dc>
 8001370:	4b43      	ldr	r3, [pc, #268]	; (8001480 <HAL_RCC_OscConfig+0x4e8>)
 8001372:	681b      	ldr	r3, [r3, #0]
 8001374:	f003 7300 	and.w	r3, r3, #33554432	; 0x2000000
 8001378:	2b00      	cmp	r3, #0
 800137a:	d1f0      	bne.n	800135e <HAL_RCC_OscConfig+0x3c6>
 800137c:	687b      	ldr	r3, [r7, #4]
 800137e:	69da      	ldr	r2, [r3, #28]
 8001380:	687b      	ldr	r3, [r7, #4]
 8001382:	6a1b      	ldr	r3, [r3, #32]
 8001384:	431a      	orrs	r2, r3
 8001386:	687b      	ldr	r3, [r7, #4]
 8001388:	6a5b      	ldr	r3, [r3, #36]	; 0x24
 800138a:	019b      	lsls	r3, r3, #6
 800138c:	431a      	orrs	r2, r3
 800138e:	687b      	ldr	r3, [r7, #4]
 8001390:	6a9b      	ldr	r3, [r3, #40]	; 0x28
 8001392:	085b      	lsrs	r3, r3, #1
 8001394:	3b01      	subs	r3, #1
 8001396:	041b      	lsls	r3, r3, #16
 8001398:	431a      	orrs	r2, r3
 800139a:	687b      	ldr	r3, [r7, #4]
 800139c:	6adb      	ldr	r3, [r3, #44]	; 0x2c
 800139e:	061b      	lsls	r3, r3, #24
 80013a0:	4937      	ldr	r1, [pc, #220]	; (8001480 <HAL_RCC_OscConfig+0x4e8>)
 80013a2:	4313      	orrs	r3, r2
 80013a4:	604b      	str	r3, [r1, #4]
 80013a6:	4b37      	ldr	r3, [pc, #220]	; (8001484 <HAL_RCC_OscConfig+0x4ec>)
 80013a8:	2201      	movs	r2, #1
 80013aa:	601a      	str	r2, [r3, #0]
 80013ac:	f7ff fb82 	bl	8000ab4 <HAL_GetTick>
 80013b0:	6138      	str	r0, [r7, #16]
 80013b2:	e008      	b.n	80013c6 <HAL_RCC_OscConfig+0x42e>
 80013b4:	f7ff fb7e 	bl	8000ab4 <HAL_GetTick>
 80013b8:	4602      	mov	r2, r0
 80013ba:	693b      	ldr	r3, [r7, #16]
 80013bc:	1ad3      	subs	r3, r2, r3
 80013be:	2b02      	cmp	r3, #2
 80013c0:	d901      	bls.n	80013c6 <HAL_RCC_OscConfig+0x42e>
 80013c2:	2303      	movs	r3, #3
 80013c4:	e056      	b.n	8001474 <HAL_RCC_OscConfig+0x4dc>
 80013c6:	4b2e      	ldr	r3, [pc, #184]	; (8001480 <HAL_RCC_OscConfig+0x4e8>)
 80013c8:	681b      	ldr	r3, [r3, #0]
 80013ca:	f003 7300 	and.w	r3, r3, #33554432	; 0x2000000
 80013ce:	2b00      	cmp	r3, #0
 80013d0:	d0f0      	beq.n	80013b4 <HAL_RCC_OscConfig+0x41c>
 80013d2:	e04e      	b.n	8001472 <HAL_RCC_OscConfig+0x4da>
 80013d4:	4b2b      	ldr	r3, [pc, #172]	; (8001484 <HAL_RCC_OscConfig+0x4ec>)
 80013d6:	2200      	movs	r2, #0
 80013d8:	601a      	str	r2, [r3, #0]
 80013da:	f7ff fb6b 	bl	8000ab4 <HAL_GetTick>
 80013de:	6138      	str	r0, [r7, #16]
 80013e0:	e008      	b.n	80013f4 <HAL_RCC_OscConfig+0x45c>
 80013e2:	f7ff fb67 	bl	8000ab4 <HAL_GetTick>
 80013e6:	4602      	mov	r2, r0
 80013e8:	693b      	ldr	r3, [r7, #16]
 80013ea:	1ad3      	subs	r3, r2, r3
 80013ec:	2b02      	cmp	r3, #2
 80013ee:	d901      	bls.n	80013f4 <HAL_RCC_OscConfig+0x45c>
 80013f0:	2303      	movs	r3, #3
 80013f2:	e03f      	b.n	8001474 <HAL_RCC_OscConfig+0x4dc>
 80013f4:	4b22      	ldr	r3, [pc, #136]	; (8001480 <HAL_RCC_OscConfig+0x4e8>)
 80013f6:	681b      	ldr	r3, [r3, #0]
 80013f8:	f003 7300 	and.w	r3, r3, #33554432	; 0x2000000
 80013fc:	2b00      	cmp	r3, #0
 80013fe:	d1f0      	bne.n	80013e2 <HAL_RCC_OscConfig+0x44a>
 8001400:	e037      	b.n	8001472 <HAL_RCC_OscConfig+0x4da>
 8001402:	687b      	ldr	r3, [r7, #4]
 8001404:	699b      	ldr	r3, [r3, #24]
 8001406:	2b01      	cmp	r3, #1
 8001408:	d101      	bne.n	800140e <HAL_RCC_OscConfig+0x476>
 800140a:	2301      	movs	r3, #1
 800140c:	e032      	b.n	8001474 <HAL_RCC_OscConfig+0x4dc>
 800140e:	4b1c      	ldr	r3, [pc, #112]	; (8001480 <HAL_RCC_OscConfig+0x4e8>)
 8001410:	685b      	ldr	r3, [r3, #4]
 8001412:	60fb      	str	r3, [r7, #12]
 8001414:	687b      	ldr	r3, [r7, #4]
 8001416:	699b      	ldr	r3, [r3, #24]
 8001418:	2b01      	cmp	r3, #1
 800141a:	d028      	beq.n	800146e <HAL_RCC_OscConfig+0x4d6>
 800141c:	68fb      	ldr	r3, [r7, #12]
 800141e:	f403 0280 	and.w	r2, r3, #4194304	; 0x400000
 8001422:	687b      	ldr	r3, [r7, #4]
 8001424:	69db      	ldr	r3, [r3, #28]
 8001426:	429a      	cmp	r2, r3
 8001428:	d121      	bne.n	800146e <HAL_RCC_OscConfig+0x4d6>
 800142a:	68fb      	ldr	r3, [r7, #12]
 800142c:	f003 023f 	and.w	r2, r3, #63	; 0x3f
 8001430:	687b      	ldr	r3, [r7, #4]
 8001432:	6a1b      	ldr	r3, [r3, #32]
 8001434:	429a      	cmp	r2, r3
 8001436:	d11a      	bne.n	800146e <HAL_RCC_OscConfig+0x4d6>
 8001438:	68fa      	ldr	r2, [r7, #12]
 800143a:	f647 73c0 	movw	r3, #32704	; 0x7fc0
 800143e:	4013      	ands	r3, r2
 8001440:	687a      	ldr	r2, [r7, #4]
 8001442:	6a52      	ldr	r2, [r2, #36]	; 0x24
 8001444:	0192      	lsls	r2, r2, #6
 8001446:	4293      	cmp	r3, r2
 8001448:	d111      	bne.n	800146e <HAL_RCC_OscConfig+0x4d6>
 800144a:	68fb      	ldr	r3, [r7, #12]
 800144c:	f403 3240 	and.w	r2, r3, #196608	; 0x30000
 8001450:	687b      	ldr	r3, [r7, #4]
 8001452:	6a9b      	ldr	r3, [r3, #40]	; 0x28
 8001454:	085b      	lsrs	r3, r3, #1
 8001456:	3b01      	subs	r3, #1
 8001458:	041b      	lsls	r3, r3, #16
 800145a:	429a      	cmp	r2, r3
 800145c:	d107      	bne.n	800146e <HAL_RCC_OscConfig+0x4d6>
 800145e:	68fb      	ldr	r3, [r7, #12]
 8001460:	f003 6270 	and.w	r2, r3, #251658240	; 0xf000000
 8001464:	687b      	ldr	r3, [r7, #4]
 8001466:	6adb      	ldr	r3, [r3, #44]	; 0x2c
 8001468:	061b      	lsls	r3, r3, #24
 800146a:	429a      	cmp	r2, r3
 800146c:	d001      	beq.n	8001472 <HAL_RCC_OscConfig+0x4da>
 800146e:	2301      	movs	r3, #1
 8001470:	e000      	b.n	8001474 <HAL_RCC_OscConfig+0x4dc>
 8001472:	2300      	movs	r3, #0
 8001474:	4618      	mov	r0, r3
 8001476:	3718      	adds	r7, #24
 8001478:	46bd      	mov	sp, r7
 800147a:	bd80      	pop	{r7, pc}
 800147c:	40007000 	.word	0x40007000
 8001480:	40023800 	.word	0x40023800
 8001484:	42470060 	.word	0x42470060

08001488 <HAL_RCC_ClockConfig>:
 8001488:	b580      	push	{r7, lr}
 800148a:	b084      	sub	sp, #16
 800148c:	af00      	add	r7, sp, #0
 800148e:	6078      	str	r0, [r7, #4]
 8001490:	6039      	str	r1, [r7, #0]
 8001492:	687b      	ldr	r3, [r7, #4]
 8001494:	2b00      	cmp	r3, #0
 8001496:	d101      	bne.n	800149c <HAL_RCC_ClockConfig+0x14>
 8001498:	2301      	movs	r3, #1
 800149a:	e0cc      	b.n	8001636 <HAL_RCC_ClockConfig+0x1ae>
 800149c:	4b68      	ldr	r3, [pc, #416]	; (8001640 <HAL_RCC_ClockConfig+0x1b8>)
 800149e:	681b      	ldr	r3, [r3, #0]
 80014a0:	f003 0307 	and.w	r3, r3, #7
 80014a4:	683a      	ldr	r2, [r7, #0]
 80014a6:	429a      	cmp	r2, r3
 80014a8:	d90c      	bls.n	80014c4 <HAL_RCC_ClockConfig+0x3c>
 80014aa:	4b65      	ldr	r3, [pc, #404]	; (8001640 <HAL_RCC_ClockConfig+0x1b8>)
 80014ac:	683a      	ldr	r2, [r7, #0]
 80014ae:	b2d2      	uxtb	r2, r2
 80014b0:	701a      	strb	r2, [r3, #0]
 80014b2:	4b63      	ldr	r3, [pc, #396]	; (8001640 <HAL_RCC_ClockConfig+0x1b8>)
 80014b4:	681b      	ldr	r3, [r3, #0]
 80014b6:	f003 0307 	and.w	r3, r3, #7
 80014ba:	683a      	ldr	r2, [r7, #0]
 80014bc:	429a      	cmp	r2, r3
 80014be:	d001      	beq.n	80014c4 <HAL_RCC_ClockConfig+0x3c>
 80014c0:	2301      	movs	r3, #1
 80014c2:	e0b8      	b.n	8001636 <HAL_RCC_ClockConfig+0x1ae>
 80014c4:	687b      	ldr	r3, [r7, #4]
 80014c6:	681b      	ldr	r3, [r3, #0]
 80014c8:	f003 0302 	and.w	r3, r3, #2
 80014cc:	2b00      	cmp	r3, #0
 80014ce:	d020      	beq.n	8001512 <HAL_RCC_ClockConfig+0x8a>
 80014d0:	687b      	ldr	r3, [r7, #4]
 80014d2:	681b      	ldr	r3, [r3, #0]
 80014d4:	f003 0304 	and.w	r3, r3, #4
 80014d8:	2b00      	cmp	r3, #0
 80014da:	d005      	beq.n	80014e8 <HAL_RCC_ClockConfig+0x60>
 80014dc:	4b59      	ldr	r3, [pc, #356]	; (8001644 <HAL_RCC_ClockConfig+0x1bc>)
 80014de:	689b      	ldr	r3, [r3, #8]
 80014e0:	4a58      	ldr	r2, [pc, #352]	; (8001644 <HAL_RCC_ClockConfig+0x1bc>)
 80014e2:	f443 53e0 	orr.w	r3, r3, #7168	; 0x1c00
 80014e6:	6093      	str	r3, [r2, #8]
 80014e8:	687b      	ldr	r3, [r7, #4]
 80014ea:	681b      	ldr	r3, [r3, #0]
 80014ec:	f003 0308 	and.w	r3, r3, #8
 80014f0:	2b00      	cmp	r3, #0
 80014f2:	d005      	beq.n	8001500 <HAL_RCC_ClockConfig+0x78>
 80014f4:	4b53      	ldr	r3, [pc, #332]	; (8001644 <HAL_RCC_ClockConfig+0x1bc>)
 80014f6:	689b      	ldr	r3, [r3, #8]
 80014f8:	4a52      	ldr	r2, [pc, #328]	; (8001644 <HAL_RCC_ClockConfig+0x1bc>)
 80014fa:	f443 4360 	orr.w	r3, r3, #57344	; 0xe000
 80014fe:	6093      	str	r3, [r2, #8]
 8001500:	4b50      	ldr	r3, [pc, #320]	; (8001644 <HAL_RCC_ClockConfig+0x1bc>)
 8001502:	689b      	ldr	r3, [r3, #8]
 8001504:	f023 02f0 	bic.w	r2, r3, #240	; 0xf0
 8001508:	687b      	ldr	r3, [r7, #4]
 800150a:	689b      	ldr	r3, [r3, #8]
 800150c:	494d      	ldr	r1, [pc, #308]	; (8001644 <HAL_RCC_ClockConfig+0x1bc>)
 800150e:	4313      	orrs	r3, r2
 8001510:	608b      	str	r3, [r1, #8]
 8001512:	687b      	ldr	r3, [r7, #4]
 8001514:	681b      	ldr	r3, [r3, #0]
 8001516:	f003 0301 	and.w	r3, r3, #1
 800151a:	2b00      	cmp	r3, #0
 800151c:	d044      	beq.n	80015a8 <HAL_RCC_ClockConfig+0x120>
 800151e:	687b      	ldr	r3, [r7, #4]
 8001520:	685b      	ldr	r3, [r3, #4]
 8001522:	2b01      	cmp	r3, #1
 8001524:	d107      	bne.n	8001536 <HAL_RCC_ClockConfig+0xae>
 8001526:	4b47      	ldr	r3, [pc, #284]	; (8001644 <HAL_RCC_ClockConfig+0x1bc>)
 8001528:	681b      	ldr	r3, [r3, #0]
 800152a:	f403 3300 	and.w	r3, r3, #131072	; 0x20000
 800152e:	2b00      	cmp	r3, #0
 8001530:	d119      	bne.n	8001566 <HAL_RCC_ClockConfig+0xde>
 8001532:	2301      	movs	r3, #1
 8001534:	e07f      	b.n	8001636 <HAL_RCC_ClockConfig+0x1ae>
 8001536:	687b      	ldr	r3, [r7, #4]
 8001538:	685b      	ldr	r3, [r3, #4]
 800153a:	2b02      	cmp	r3, #2
 800153c:	d003      	beq.n	8001546 <HAL_RCC_ClockConfig+0xbe>
 800153e:	687b      	ldr	r3, [r7, #4]
 8001540:	685b      	ldr	r3, [r3, #4]
 8001542:	2b03      	cmp	r3, #3
 8001544:	d107      	bne.n	8001556 <HAL_RCC_ClockConfig+0xce>
 8001546:	4b3f      	ldr	r3, [pc, #252]	; (8001644 <HAL_RCC_ClockConfig+0x1bc>)
 8001548:	681b      	ldr	r3, [r3, #0]
 800154a:	f003 7300 	and.w	r3, r3, #33554432	; 0x2000000
 800154e:	2b00      	cmp	r3, #0
 8001550:	d109      	bne.n	8001566 <HAL_RCC_ClockConfig+0xde>
 8001552:	2301      	movs	r3, #1
 8001554:	e06f      	b.n	8001636 <HAL_RCC_ClockConfig+0x1ae>
 8001556:	4b3b      	ldr	r3, [pc, #236]	; (8001644 <HAL_RCC_ClockConfig+0x1bc>)
 8001558:	681b      	ldr	r3, [r3, #0]
 800155a:	f003 0302 	and.w	r3, r3, #2
 800155e:	2b00      	cmp	r3, #0
 8001560:	d101      	bne.n	8001566 <HAL_RCC_ClockConfig+0xde>
 8001562:	2301      	movs	r3, #1
 8001564:	e067      	b.n	8001636 <HAL_RCC_ClockConfig+0x1ae>
 8001566:	4b37      	ldr	r3, [pc, #220]	; (8001644 <HAL_RCC_ClockConfig+0x1bc>)
 8001568:	689b      	ldr	r3, [r3, #8]
 800156a:	f023 0203 	bic.w	r2, r3, #3
 800156e:	687b      	ldr	r3, [r7, #4]
 8001570:	685b      	ldr	r3, [r3, #4]
 8001572:	4934      	ldr	r1, [pc, #208]	; (8001644 <HAL_RCC_ClockConfig+0x1bc>)
 8001574:	4313      	orrs	r3, r2
 8001576:	608b      	str	r3, [r1, #8]
 8001578:	f7ff fa9c 	bl	8000ab4 <HAL_GetTick>
 800157c:	60f8      	str	r0, [r7, #12]
 800157e:	e00a      	b.n	8001596 <HAL_RCC_ClockConfig+0x10e>
 8001580:	f7ff fa98 	bl	8000ab4 <HAL_GetTick>
 8001584:	4602      	mov	r2, r0
 8001586:	68fb      	ldr	r3, [r7, #12]
 8001588:	1ad3      	subs	r3, r2, r3
 800158a:	f241 3288 	movw	r2, #5000	; 0x1388
 800158e:	4293      	cmp	r3, r2
 8001590:	d901      	bls.n	8001596 <HAL_RCC_ClockConfig+0x10e>
 8001592:	2303      	movs	r3, #3
 8001594:	e04f      	b.n	8001636 <HAL_RCC_ClockConfig+0x1ae>
 8001596:	4b2b      	ldr	r3, [pc, #172]	; (8001644 <HAL_RCC_ClockConfig+0x1bc>)
 8001598:	689b      	ldr	r3, [r3, #8]
 800159a:	f003 020c 	and.w	r2, r3, #12
 800159e:	687b      	ldr	r3, [r7, #4]
 80015a0:	685b      	ldr	r3, [r3, #4]
 80015a2:	009b      	lsls	r3, r3, #2
 80015a4:	429a      	cmp	r2, r3
 80015a6:	d1eb      	bne.n	8001580 <HAL_RCC_ClockConfig+0xf8>
 80015a8:	4b25      	ldr	r3, [pc, #148]	; (8001640 <HAL_RCC_ClockConfig+0x1b8>)
 80015aa:	681b      	ldr	r3, [r3, #0]
 80015ac:	f003 0307 	and.w	r3, r3, #7
 80015b0:	683a      	ldr	r2, [r7, #0]
 80015b2:	429a      	cmp	r2, r3
 80015b4:	d20c      	bcs.n	80015d0 <HAL_RCC_ClockConfig+0x148>
 80015b6:	4b22      	ldr	r3, [pc, #136]	; (8001640 <HAL_RCC_ClockConfig+0x1b8>)
 80015b8:	683a      	ldr	r2, [r7, #0]
 80015ba:	b2d2      	uxtb	r2, r2
 80015bc:	701a      	strb	r2, [r3, #0]
 80015be:	4b20      	ldr	r3, [pc, #128]	; (8001640 <HAL_RCC_ClockConfig+0x1b8>)
 80015c0:	681b      	ldr	r3, [r3, #0]
 80015c2:	f003 0307 	and.w	r3, r3, #7
 80015c6:	683a      	ldr	r2, [r7, #0]
 80015c8:	429a      	cmp	r2, r3
 80015ca:	d001      	beq.n	80015d0 <HAL_RCC_ClockConfig+0x148>
 80015cc:	2301      	movs	r3, #1
 80015ce:	e032      	b.n	8001636 <HAL_RCC_ClockConfig+0x1ae>
 80015d0:	687b      	ldr	r3, [r7, #4]
 80015d2:	681b      	ldr	r3, [r3, #0]
 80015d4:	f003 0304 	and.w	r3, r3, #4
 80015d8:	2b00      	cmp	r3, #0
 80015da:	d008      	beq.n	80015ee <HAL_RCC_ClockConfig+0x166>
 80015dc:	4b19      	ldr	r3, [pc, #100]	; (8001644 <HAL_RCC_ClockConfig+0x1bc>)
 80015de:	689b      	ldr	r3, [r3, #8]
 80015e0:	f423 52e0 	bic.w	r2, r3, #7168	; 0x1c00
 80015e4:	687b      	ldr	r3, [r7, #4]
 80015e6:	68db      	ldr	r3, [r3, #12]
 80015e8:	4916      	ldr	r1, [pc, #88]	; (8001644 <HAL_RCC_ClockConfig+0x1bc>)
 80015ea:	4313      	orrs	r3, r2
 80015ec:	608b      	str	r3, [r1, #8]
 80015ee:	687b      	ldr	r3, [r7, #4]
 80015f0:	681b      	ldr	r3, [r3, #0]
 80015f2:	f003 0308 	and.w	r3, r3, #8
 80015f6:	2b00      	cmp	r3, #0
 80015f8:	d009      	beq.n	800160e <HAL_RCC_ClockConfig+0x186>
 80015fa:	4b12      	ldr	r3, [pc, #72]	; (8001644 <HAL_RCC_ClockConfig+0x1bc>)
 80015fc:	689b      	ldr	r3, [r3, #8]
 80015fe:	f423 4260 	bic.w	r2, r3, #57344	; 0xe000
 8001602:	687b      	ldr	r3, [r7, #4]
 8001604:	691b      	ldr	r3, [r3, #16]
 8001606:	00db      	lsls	r3, r3, #3
 8001608:	490e      	ldr	r1, [pc, #56]	; (8001644 <HAL_RCC_ClockConfig+0x1bc>)
 800160a:	4313      	orrs	r3, r2
 800160c:	608b      	str	r3, [r1, #8]
 800160e:	f000 f821 	bl	8001654 <HAL_RCC_GetSysClockFreq>
 8001612:	4602      	mov	r2, r0
 8001614:	4b0b      	ldr	r3, [pc, #44]	; (8001644 <HAL_RCC_ClockConfig+0x1bc>)
 8001616:	689b      	ldr	r3, [r3, #8]
 8001618:	091b      	lsrs	r3, r3, #4
 800161a:	f003 030f 	and.w	r3, r3, #15
 800161e:	490a      	ldr	r1, [pc, #40]	; (8001648 <HAL_RCC_ClockConfig+0x1c0>)
 8001620:	5ccb      	ldrb	r3, [r1, r3]
 8001622:	fa22 f303 	lsr.w	r3, r2, r3
 8001626:	4a09      	ldr	r2, [pc, #36]	; (800164c <HAL_RCC_ClockConfig+0x1c4>)
 8001628:	6013      	str	r3, [r2, #0]
 800162a:	4b09      	ldr	r3, [pc, #36]	; (8001650 <HAL_RCC_ClockConfig+0x1c8>)
 800162c:	681b      	ldr	r3, [r3, #0]
 800162e:	4618      	mov	r0, r3
 8001630:	f7ff f956 	bl	80008e0 <HAL_InitTick>
 8001634:	2300      	movs	r3, #0
 8001636:	4618      	mov	r0, r3
 8001638:	3710      	adds	r7, #16
 800163a:	46bd      	mov	sp, r7
 800163c:	bd80      	pop	{r7, pc}
 800163e:	bf00      	nop
 8001640:	40023c00 	.word	0x40023c00
 8001644:	40023800 	.word	0x40023800
 8001648:	08004d0c 	.word	0x08004d0c
 800164c:	20000000 	.word	0x20000000
 8001650:	20000004 	.word	0x20000004

08001654 <HAL_RCC_GetSysClockFreq>:
 8001654:	b5b0      	push	{r4, r5, r7, lr}
 8001656:	b084      	sub	sp, #16
 8001658:	af00      	add	r7, sp, #0
 800165a:	2100      	movs	r1, #0
 800165c:	6079      	str	r1, [r7, #4]
 800165e:	2100      	movs	r1, #0
 8001660:	60f9      	str	r1, [r7, #12]
 8001662:	2100      	movs	r1, #0
 8001664:	6039      	str	r1, [r7, #0]
 8001666:	2100      	movs	r1, #0
 8001668:	60b9      	str	r1, [r7, #8]
 800166a:	4952      	ldr	r1, [pc, #328]	; (80017b4 <HAL_RCC_GetSysClockFreq+0x160>)
 800166c:	6889      	ldr	r1, [r1, #8]
 800166e:	f001 010c 	and.w	r1, r1, #12
 8001672:	2908      	cmp	r1, #8
 8001674:	d00d      	beq.n	8001692 <HAL_RCC_GetSysClockFreq+0x3e>
 8001676:	2908      	cmp	r1, #8
 8001678:	f200 8094 	bhi.w	80017a4 <HAL_RCC_GetSysClockFreq+0x150>
 800167c:	2900      	cmp	r1, #0
 800167e:	d002      	beq.n	8001686 <HAL_RCC_GetSysClockFreq+0x32>
 8001680:	2904      	cmp	r1, #4
 8001682:	d003      	beq.n	800168c <HAL_RCC_GetSysClockFreq+0x38>
 8001684:	e08e      	b.n	80017a4 <HAL_RCC_GetSysClockFreq+0x150>
 8001686:	4b4c      	ldr	r3, [pc, #304]	; (80017b8 <HAL_RCC_GetSysClockFreq+0x164>)
 8001688:	60bb      	str	r3, [r7, #8]
 800168a:	e08e      	b.n	80017aa <HAL_RCC_GetSysClockFreq+0x156>
 800168c:	4b4b      	ldr	r3, [pc, #300]	; (80017bc <HAL_RCC_GetSysClockFreq+0x168>)
 800168e:	60bb      	str	r3, [r7, #8]
 8001690:	e08b      	b.n	80017aa <HAL_RCC_GetSysClockFreq+0x156>
 8001692:	4948      	ldr	r1, [pc, #288]	; (80017b4 <HAL_RCC_GetSysClockFreq+0x160>)
 8001694:	6849      	ldr	r1, [r1, #4]
 8001696:	f001 013f 	and.w	r1, r1, #63	; 0x3f
 800169a:	6079      	str	r1, [r7, #4]
 800169c:	4945      	ldr	r1, [pc, #276]	; (80017b4 <HAL_RCC_GetSysClockFreq+0x160>)
 800169e:	6849      	ldr	r1, [r1, #4]
 80016a0:	f401 0180 	and.w	r1, r1, #4194304	; 0x400000
 80016a4:	2900      	cmp	r1, #0
 80016a6:	d024      	beq.n	80016f2 <HAL_RCC_GetSysClockFreq+0x9e>
 80016a8:	4942      	ldr	r1, [pc, #264]	; (80017b4 <HAL_RCC_GetSysClockFreq+0x160>)
 80016aa:	6849      	ldr	r1, [r1, #4]
 80016ac:	0989      	lsrs	r1, r1, #6
 80016ae:	4608      	mov	r0, r1
 80016b0:	f04f 0100 	mov.w	r1, #0
 80016b4:	f240 14ff 	movw	r4, #511	; 0x1ff
 80016b8:	f04f 0500 	mov.w	r5, #0
 80016bc:	ea00 0204 	and.w	r2, r0, r4
 80016c0:	ea01 0305 	and.w	r3, r1, r5
 80016c4:	493d      	ldr	r1, [pc, #244]	; (80017bc <HAL_RCC_GetSysClockFreq+0x168>)
 80016c6:	fb01 f003 	mul.w	r0, r1, r3
 80016ca:	2100      	movs	r1, #0
 80016cc:	fb01 f102 	mul.w	r1, r1, r2
 80016d0:	1844      	adds	r4, r0, r1
 80016d2:	493a      	ldr	r1, [pc, #232]	; (80017bc <HAL_RCC_GetSysClockFreq+0x168>)
 80016d4:	fba2 0101 	umull	r0, r1, r2, r1
 80016d8:	1863      	adds	r3, r4, r1
 80016da:	4619      	mov	r1, r3
 80016dc:	687b      	ldr	r3, [r7, #4]
 80016de:	461a      	mov	r2, r3
 80016e0:	f04f 0300 	mov.w	r3, #0
 80016e4:	f7fe fd7c 	bl	80001e0 <__aeabi_uldivmod>
 80016e8:	4602      	mov	r2, r0
 80016ea:	460b      	mov	r3, r1
 80016ec:	4613      	mov	r3, r2
 80016ee:	60fb      	str	r3, [r7, #12]
 80016f0:	e04a      	b.n	8001788 <HAL_RCC_GetSysClockFreq+0x134>
 80016f2:	4b30      	ldr	r3, [pc, #192]	; (80017b4 <HAL_RCC_GetSysClockFreq+0x160>)
 80016f4:	685b      	ldr	r3, [r3, #4]
 80016f6:	099b      	lsrs	r3, r3, #6
 80016f8:	461a      	mov	r2, r3
 80016fa:	f04f 0300 	mov.w	r3, #0
 80016fe:	f240 10ff 	movw	r0, #511	; 0x1ff
 8001702:	f04f 0100 	mov.w	r1, #0
 8001706:	ea02 0400 	and.w	r4, r2, r0
 800170a:	ea03 0501 	and.w	r5, r3, r1
 800170e:	4620      	mov	r0, r4
 8001710:	4629      	mov	r1, r5
 8001712:	f04f 0200 	mov.w	r2, #0
 8001716:	f04f 0300 	mov.w	r3, #0
 800171a:	014b      	lsls	r3, r1, #5
 800171c:	ea43 63d0 	orr.w	r3, r3, r0, lsr #27
 8001720:	0142      	lsls	r2, r0, #5
 8001722:	4610      	mov	r0, r2
 8001724:	4619      	mov	r1, r3
 8001726:	1b00      	subs	r0, r0, r4
 8001728:	eb61 0105 	sbc.w	r1, r1, r5
 800172c:	f04f 0200 	mov.w	r2, #0
 8001730:	f04f 0300 	mov.w	r3, #0
 8001734:	018b      	lsls	r3, r1, #6
 8001736:	ea43 6390 	orr.w	r3, r3, r0, lsr #26
 800173a:	0182      	lsls	r2, r0, #6
 800173c:	1a12      	subs	r2, r2, r0
 800173e:	eb63 0301 	sbc.w	r3, r3, r1
 8001742:	f04f 0000 	mov.w	r0, #0
 8001746:	f04f 0100 	mov.w	r1, #0
 800174a:	00d9      	lsls	r1, r3, #3
 800174c:	ea41 7152 	orr.w	r1, r1, r2, lsr #29
 8001750:	00d0      	lsls	r0, r2, #3
 8001752:	4602      	mov	r2, r0
 8001754:	460b      	mov	r3, r1
 8001756:	1912      	adds	r2, r2, r4
 8001758:	eb45 0303 	adc.w	r3, r5, r3
 800175c:	f04f 0000 	mov.w	r0, #0
 8001760:	f04f 0100 	mov.w	r1, #0
 8001764:	0299      	lsls	r1, r3, #10
 8001766:	ea41 5192 	orr.w	r1, r1, r2, lsr #22
 800176a:	0290      	lsls	r0, r2, #10
 800176c:	4602      	mov	r2, r0
 800176e:	460b      	mov	r3, r1
 8001770:	4610      	mov	r0, r2
 8001772:	4619      	mov	r1, r3
 8001774:	687b      	ldr	r3, [r7, #4]
 8001776:	461a      	mov	r2, r3
 8001778:	f04f 0300 	mov.w	r3, #0
 800177c:	f7fe fd30 	bl	80001e0 <__aeabi_uldivmod>
 8001780:	4602      	mov	r2, r0
 8001782:	460b      	mov	r3, r1
 8001784:	4613      	mov	r3, r2
 8001786:	60fb      	str	r3, [r7, #12]
 8001788:	4b0a      	ldr	r3, [pc, #40]	; (80017b4 <HAL_RCC_GetSysClockFreq+0x160>)
 800178a:	685b      	ldr	r3, [r3, #4]
 800178c:	0c1b      	lsrs	r3, r3, #16
 800178e:	f003 0303 	and.w	r3, r3, #3
 8001792:	3301      	adds	r3, #1
 8001794:	005b      	lsls	r3, r3, #1
 8001796:	603b      	str	r3, [r7, #0]
 8001798:	68fa      	ldr	r2, [r7, #12]
 800179a:	683b      	ldr	r3, [r7, #0]
 800179c:	fbb2 f3f3 	udiv	r3, r2, r3
 80017a0:	60bb      	str	r3, [r7, #8]
 80017a2:	e002      	b.n	80017aa <HAL_RCC_GetSysClockFreq+0x156>
 80017a4:	4b04      	ldr	r3, [pc, #16]	; (80017b8 <HAL_RCC_GetSysClockFreq+0x164>)
 80017a6:	60bb      	str	r3, [r7, #8]
 80017a8:	bf00      	nop
 80017aa:	68bb      	ldr	r3, [r7, #8]
 80017ac:	4618      	mov	r0, r3
 80017ae:	3710      	adds	r7, #16
 80017b0:	46bd      	mov	sp, r7
 80017b2:	bdb0      	pop	{r4, r5, r7, pc}
 80017b4:	40023800 	.word	0x40023800
 80017b8:	00f42400 	.word	0x00f42400
 80017bc:	017d7840 	.word	0x017d7840

080017c0 <HAL_RCC_GetHCLKFreq>:
 80017c0:	b480      	push	{r7}
 80017c2:	af00      	add	r7, sp, #0
 80017c4:	4b03      	ldr	r3, [pc, #12]	; (80017d4 <HAL_RCC_GetHCLKFreq+0x14>)
 80017c6:	681b      	ldr	r3, [r3, #0]
 80017c8:	4618      	mov	r0, r3
 80017ca:	46bd      	mov	sp, r7
 80017cc:	f85d 7b04 	ldr.w	r7, [sp], #4
 80017d0:	4770      	bx	lr
 80017d2:	bf00      	nop
 80017d4:	20000000 	.word	0x20000000

080017d8 <HAL_RCC_GetPCLK1Freq>:
 80017d8:	b580      	push	{r7, lr}
 80017da:	af00      	add	r7, sp, #0
 80017dc:	f7ff fff0 	bl	80017c0 <HAL_RCC_GetHCLKFreq>
 80017e0:	4602      	mov	r2, r0
 80017e2:	4b05      	ldr	r3, [pc, #20]	; (80017f8 <HAL_RCC_GetPCLK1Freq+0x20>)
 80017e4:	689b      	ldr	r3, [r3, #8]
 80017e6:	0a9b      	lsrs	r3, r3, #10
 80017e8:	f003 0307 	and.w	r3, r3, #7
 80017ec:	4903      	ldr	r1, [pc, #12]	; (80017fc <HAL_RCC_GetPCLK1Freq+0x24>)
 80017ee:	5ccb      	ldrb	r3, [r1, r3]
 80017f0:	fa22 f303 	lsr.w	r3, r2, r3
 80017f4:	4618      	mov	r0, r3
 80017f6:	bd80      	pop	{r7, pc}
 80017f8:	40023800 	.word	0x40023800
 80017fc:	08004d1c 	.word	0x08004d1c

08001800 <HAL_RCC_GetPCLK2Freq>:
 8001800:	b580      	push	{r7, lr}
 8001802:	af00      	add	r7, sp, #0
 8001804:	f7ff ffdc 	bl	80017c0 <HAL_RCC_GetHCLKFreq>
 8001808:	4602      	mov	r2, r0
 800180a:	4b05      	ldr	r3, [pc, #20]	; (8001820 <HAL_RCC_GetPCLK2Freq+0x20>)
 800180c:	689b      	ldr	r3, [r3, #8]
 800180e:	0b5b      	lsrs	r3, r3, #13
 8001810:	f003 0307 	and.w	r3, r3, #7
 8001814:	4903      	ldr	r1, [pc, #12]	; (8001824 <HAL_RCC_GetPCLK2Freq+0x24>)
 8001816:	5ccb      	ldrb	r3, [r1, r3]
 8001818:	fa22 f303 	lsr.w	r3, r2, r3
 800181c:	4618      	mov	r0, r3
 800181e:	bd80      	pop	{r7, pc}
 8001820:	40023800 	.word	0x40023800
 8001824:	08004d1c 	.word	0x08004d1c

08001828 <HAL_RCC_GetClockConfig>:
 8001828:	b480      	push	{r7}
 800182a:	b083      	sub	sp, #12
 800182c:	af00      	add	r7, sp, #0
 800182e:	6078      	str	r0, [r7, #4]
 8001830:	6039      	str	r1, [r7, #0]
 8001832:	687b      	ldr	r3, [r7, #4]
 8001834:	220f      	movs	r2, #15
 8001836:	601a      	str	r2, [r3, #0]
 8001838:	4b12      	ldr	r3, [pc, #72]	; (8001884 <HAL_RCC_GetClockConfig+0x5c>)
 800183a:	689b      	ldr	r3, [r3, #8]
 800183c:	f003 0203 	and.w	r2, r3, #3
 8001840:	687b      	ldr	r3, [r7, #4]
 8001842:	605a      	str	r2, [r3, #4]
 8001844:	4b0f      	ldr	r3, [pc, #60]	; (8001884 <HAL_RCC_GetClockConfig+0x5c>)
 8001846:	689b      	ldr	r3, [r3, #8]
 8001848:	f003 02f0 	and.w	r2, r3, #240	; 0xf0
 800184c:	687b      	ldr	r3, [r7, #4]
 800184e:	609a      	str	r2, [r3, #8]
 8001850:	4b0c      	ldr	r3, [pc, #48]	; (8001884 <HAL_RCC_GetClockConfig+0x5c>)
 8001852:	689b      	ldr	r3, [r3, #8]
 8001854:	f403 52e0 	and.w	r2, r3, #7168	; 0x1c00
 8001858:	687b      	ldr	r3, [r7, #4]
 800185a:	60da      	str	r2, [r3, #12]
 800185c:	4b09      	ldr	r3, [pc, #36]	; (8001884 <HAL_RCC_GetClockConfig+0x5c>)
 800185e:	689b      	ldr	r3, [r3, #8]
 8001860:	08db      	lsrs	r3, r3, #3
 8001862:	f403 52e0 	and.w	r2, r3, #7168	; 0x1c00
 8001866:	687b      	ldr	r3, [r7, #4]
 8001868:	611a      	str	r2, [r3, #16]
 800186a:	4b07      	ldr	r3, [pc, #28]	; (8001888 <HAL_RCC_GetClockConfig+0x60>)
 800186c:	681b      	ldr	r3, [r3, #0]
 800186e:	f003 0207 	and.w	r2, r3, #7
 8001872:	683b      	ldr	r3, [r7, #0]
 8001874:	601a      	str	r2, [r3, #0]
 8001876:	bf00      	nop
 8001878:	370c      	adds	r7, #12
 800187a:	46bd      	mov	sp, r7
 800187c:	f85d 7b04 	ldr.w	r7, [sp], #4
 8001880:	4770      	bx	lr
 8001882:	bf00      	nop
 8001884:	40023800 	.word	0x40023800
 8001888:	40023c00 	.word	0x40023c00

0800188c <HAL_TIM_Base_Init>:
 800188c:	b580      	push	{r7, lr}
 800188e:	b082      	sub	sp, #8
 8001890:	af00      	add	r7, sp, #0
 8001892:	6078      	str	r0, [r7, #4]
 8001894:	687b      	ldr	r3, [r7, #4]
 8001896:	2b00      	cmp	r3, #0
 8001898:	d101      	bne.n	800189e <HAL_TIM_Base_Init+0x12>
 800189a:	2301      	movs	r3, #1
 800189c:	e041      	b.n	8001922 <HAL_TIM_Base_Init+0x96>
 800189e:	687b      	ldr	r3, [r7, #4]
 80018a0:	f893 303d 	ldrb.w	r3, [r3, #61]	; 0x3d
 80018a4:	b2db      	uxtb	r3, r3
 80018a6:	2b00      	cmp	r3, #0
 80018a8:	d106      	bne.n	80018b8 <HAL_TIM_Base_Init+0x2c>
 80018aa:	687b      	ldr	r3, [r7, #4]
 80018ac:	2200      	movs	r2, #0
 80018ae:	f883 203c 	strb.w	r2, [r3, #60]	; 0x3c
 80018b2:	6878      	ldr	r0, [r7, #4]
 80018b4:	f000 f839 	bl	800192a <HAL_TIM_Base_MspInit>
 80018b8:	687b      	ldr	r3, [r7, #4]
 80018ba:	2202      	movs	r2, #2
 80018bc:	f883 203d 	strb.w	r2, [r3, #61]	; 0x3d
 80018c0:	687b      	ldr	r3, [r7, #4]
 80018c2:	681a      	ldr	r2, [r3, #0]
 80018c4:	687b      	ldr	r3, [r7, #4]
 80018c6:	3304      	adds	r3, #4
 80018c8:	4619      	mov	r1, r3
 80018ca:	4610      	mov	r0, r2
 80018cc:	f000 f9ca 	bl	8001c64 <TIM_Base_SetConfig>
 80018d0:	687b      	ldr	r3, [r7, #4]
 80018d2:	2201      	movs	r2, #1
 80018d4:	f883 2046 	strb.w	r2, [r3, #70]	; 0x46
 80018d8:	687b      	ldr	r3, [r7, #4]
 80018da:	2201      	movs	r2, #1
 80018dc:	f883 203e 	strb.w	r2, [r3, #62]	; 0x3e
 80018e0:	687b      	ldr	r3, [r7, #4]
 80018e2:	2201      	movs	r2, #1
 80018e4:	f883 203f 	strb.w	r2, [r3, #63]	; 0x3f
 80018e8:	687b      	ldr	r3, [r7, #4]
 80018ea:	2201      	movs	r2, #1
 80018ec:	f883 2040 	strb.w	r2, [r3, #64]	; 0x40
 80018f0:	687b      	ldr	r3, [r7, #4]
 80018f2:	2201      	movs	r2, #1
 80018f4:	f883 2041 	strb.w	r2, [r3, #65]	; 0x41
 80018f8:	687b      	ldr	r3, [r7, #4]
 80018fa:	2201      	movs	r2, #1
 80018fc:	f883 2042 	strb.w	r2, [r3, #66]	; 0x42
 8001900:	687b      	ldr	r3, [r7, #4]
 8001902:	2201      	movs	r2, #1
 8001904:	f883 2043 	strb.w	r2, [r3, #67]	; 0x43
 8001908:	687b      	ldr	r3, [r7, #4]
 800190a:	2201      	movs	r2, #1
 800190c:	f883 2044 	strb.w	r2, [r3, #68]	; 0x44
 8001910:	687b      	ldr	r3, [r7, #4]
 8001912:	2201      	movs	r2, #1
 8001914:	f883 2045 	strb.w	r2, [r3, #69]	; 0x45
 8001918:	687b      	ldr	r3, [r7, #4]
 800191a:	2201      	movs	r2, #1
 800191c:	f883 203d 	strb.w	r2, [r3, #61]	; 0x3d
 8001920:	2300      	movs	r3, #0
 8001922:	4618      	mov	r0, r3
 8001924:	3708      	adds	r7, #8
 8001926:	46bd      	mov	sp, r7
 8001928:	bd80      	pop	{r7, pc}

0800192a <HAL_TIM_Base_MspInit>:
 800192a:	b480      	push	{r7}
 800192c:	b083      	sub	sp, #12
 800192e:	af00      	add	r7, sp, #0
 8001930:	6078      	str	r0, [r7, #4]
 8001932:	bf00      	nop
 8001934:	370c      	adds	r7, #12
 8001936:	46bd      	mov	sp, r7
 8001938:	f85d 7b04 	ldr.w	r7, [sp], #4
 800193c:	4770      	bx	lr
	...

08001940 <HAL_TIM_Base_Start_IT>:
 8001940:	b480      	push	{r7}
 8001942:	b085      	sub	sp, #20
 8001944:	af00      	add	r7, sp, #0
 8001946:	6078      	str	r0, [r7, #4]
 8001948:	687b      	ldr	r3, [r7, #4]
 800194a:	f893 303d 	ldrb.w	r3, [r3, #61]	; 0x3d
 800194e:	b2db      	uxtb	r3, r3
 8001950:	2b01      	cmp	r3, #1
 8001952:	d001      	beq.n	8001958 <HAL_TIM_Base_Start_IT+0x18>
 8001954:	2301      	movs	r3, #1
 8001956:	e044      	b.n	80019e2 <HAL_TIM_Base_Start_IT+0xa2>
 8001958:	687b      	ldr	r3, [r7, #4]
 800195a:	2202      	movs	r2, #2
 800195c:	f883 203d 	strb.w	r2, [r3, #61]	; 0x3d
 8001960:	687b      	ldr	r3, [r7, #4]
 8001962:	681b      	ldr	r3, [r3, #0]
 8001964:	68da      	ldr	r2, [r3, #12]
 8001966:	687b      	ldr	r3, [r7, #4]
 8001968:	681b      	ldr	r3, [r3, #0]
 800196a:	f042 0201 	orr.w	r2, r2, #1
 800196e:	60da      	str	r2, [r3, #12]
 8001970:	687b      	ldr	r3, [r7, #4]
 8001972:	681b      	ldr	r3, [r3, #0]
 8001974:	4a1e      	ldr	r2, [pc, #120]	; (80019f0 <HAL_TIM_Base_Start_IT+0xb0>)
 8001976:	4293      	cmp	r3, r2
 8001978:	d018      	beq.n	80019ac <HAL_TIM_Base_Start_IT+0x6c>
 800197a:	687b      	ldr	r3, [r7, #4]
 800197c:	681b      	ldr	r3, [r3, #0]
 800197e:	f1b3 4f80 	cmp.w	r3, #1073741824	; 0x40000000
 8001982:	d013      	beq.n	80019ac <HAL_TIM_Base_Start_IT+0x6c>
 8001984:	687b      	ldr	r3, [r7, #4]
 8001986:	681b      	ldr	r3, [r3, #0]
 8001988:	4a1a      	ldr	r2, [pc, #104]	; (80019f4 <HAL_TIM_Base_Start_IT+0xb4>)
 800198a:	4293      	cmp	r3, r2
 800198c:	d00e      	beq.n	80019ac <HAL_TIM_Base_Start_IT+0x6c>
 800198e:	687b      	ldr	r3, [r7, #4]
 8001990:	681b      	ldr	r3, [r3, #0]
 8001992:	4a19      	ldr	r2, [pc, #100]	; (80019f8 <HAL_TIM_Base_Start_IT+0xb8>)
 8001994:	4293      	cmp	r3, r2
 8001996:	d009      	beq.n	80019ac <HAL_TIM_Base_Start_IT+0x6c>
 8001998:	687b      	ldr	r3, [r7, #4]
 800199a:	681b      	ldr	r3, [r3, #0]
 800199c:	4a17      	ldr	r2, [pc, #92]	; (80019fc <HAL_TIM_Base_Start_IT+0xbc>)
 800199e:	4293      	cmp	r3, r2
 80019a0:	d004      	beq.n	80019ac <HAL_TIM_Base_Start_IT+0x6c>
 80019a2:	687b      	ldr	r3, [r7, #4]
 80019a4:	681b      	ldr	r3, [r3, #0]
 80019a6:	4a16      	ldr	r2, [pc, #88]	; (8001a00 <HAL_TIM_Base_Start_IT+0xc0>)
 80019a8:	4293      	cmp	r3, r2
 80019aa:	d111      	bne.n	80019d0 <HAL_TIM_Base_Start_IT+0x90>
 80019ac:	687b      	ldr	r3, [r7, #4]
 80019ae:	681b      	ldr	r3, [r3, #0]
 80019b0:	689b      	ldr	r3, [r3, #8]
 80019b2:	f003 0307 	and.w	r3, r3, #7
 80019b6:	60fb      	str	r3, [r7, #12]
 80019b8:	68fb      	ldr	r3, [r7, #12]
 80019ba:	2b06      	cmp	r3, #6
 80019bc:	d010      	beq.n	80019e0 <HAL_TIM_Base_Start_IT+0xa0>
 80019be:	687b      	ldr	r3, [r7, #4]
 80019c0:	681b      	ldr	r3, [r3, #0]
 80019c2:	681a      	ldr	r2, [r3, #0]
 80019c4:	687b      	ldr	r3, [r7, #4]
 80019c6:	681b      	ldr	r3, [r3, #0]
 80019c8:	f042 0201 	orr.w	r2, r2, #1
 80019cc:	601a      	str	r2, [r3, #0]
 80019ce:	e007      	b.n	80019e0 <HAL_TIM_Base_Start_IT+0xa0>
 80019d0:	687b      	ldr	r3, [r7, #4]
 80019d2:	681b      	ldr	r3, [r3, #0]
 80019d4:	681a      	ldr	r2, [r3, #0]
 80019d6:	687b      	ldr	r3, [r7, #4]
 80019d8:	681b      	ldr	r3, [r3, #0]
 80019da:	f042 0201 	orr.w	r2, r2, #1
 80019de:	601a      	str	r2, [r3, #0]
 80019e0:	2300      	movs	r3, #0
 80019e2:	4618      	mov	r0, r3
 80019e4:	3714      	adds	r7, #20
 80019e6:	46bd      	mov	sp, r7
 80019e8:	f85d 7b04 	ldr.w	r7, [sp], #4
 80019ec:	4770      	bx	lr
 80019ee:	bf00      	nop
 80019f0:	40010000 	.word	0x40010000
 80019f4:	40000400 	.word	0x40000400
 80019f8:	40000800 	.word	0x40000800
 80019fc:	40000c00 	.word	0x40000c00
 8001a00:	40014000 	.word	0x40014000

08001a04 <HAL_TIM_IRQHandler>:
 8001a04:	b580      	push	{r7, lr}
 8001a06:	b082      	sub	sp, #8
 8001a08:	af00      	add	r7, sp, #0
 8001a0a:	6078      	str	r0, [r7, #4]
 8001a0c:	687b      	ldr	r3, [r7, #4]
 8001a0e:	681b      	ldr	r3, [r3, #0]
 8001a10:	691b      	ldr	r3, [r3, #16]
 8001a12:	f003 0302 	and.w	r3, r3, #2
 8001a16:	2b02      	cmp	r3, #2
 8001a18:	d122      	bne.n	8001a60 <HAL_TIM_IRQHandler+0x5c>
 8001a1a:	687b      	ldr	r3, [r7, #4]
 8001a1c:	681b      	ldr	r3, [r3, #0]
 8001a1e:	68db      	ldr	r3, [r3, #12]
 8001a20:	f003 0302 	and.w	r3, r3, #2
 8001a24:	2b02      	cmp	r3, #2
 8001a26:	d11b      	bne.n	8001a60 <HAL_TIM_IRQHandler+0x5c>
 8001a28:	687b      	ldr	r3, [r7, #4]
 8001a2a:	681b      	ldr	r3, [r3, #0]
 8001a2c:	f06f 0202 	mvn.w	r2, #2
 8001a30:	611a      	str	r2, [r3, #16]
 8001a32:	687b      	ldr	r3, [r7, #4]
 8001a34:	2201      	movs	r2, #1
 8001a36:	771a      	strb	r2, [r3, #28]
 8001a38:	687b      	ldr	r3, [r7, #4]
 8001a3a:	681b      	ldr	r3, [r3, #0]
 8001a3c:	699b      	ldr	r3, [r3, #24]
 8001a3e:	f003 0303 	and.w	r3, r3, #3
 8001a42:	2b00      	cmp	r3, #0
 8001a44:	d003      	beq.n	8001a4e <HAL_TIM_IRQHandler+0x4a>
 8001a46:	6878      	ldr	r0, [r7, #4]
 8001a48:	f000 f8ee 	bl	8001c28 <HAL_TIM_IC_CaptureCallback>
 8001a4c:	e005      	b.n	8001a5a <HAL_TIM_IRQHandler+0x56>
 8001a4e:	6878      	ldr	r0, [r7, #4]
 8001a50:	f000 f8e0 	bl	8001c14 <HAL_TIM_OC_DelayElapsedCallback>
 8001a54:	6878      	ldr	r0, [r7, #4]
 8001a56:	f000 f8f1 	bl	8001c3c <HAL_TIM_PWM_PulseFinishedCallback>
 8001a5a:	687b      	ldr	r3, [r7, #4]
 8001a5c:	2200      	movs	r2, #0
 8001a5e:	771a      	strb	r2, [r3, #28]
 8001a60:	687b      	ldr	r3, [r7, #4]
 8001a62:	681b      	ldr	r3, [r3, #0]
 8001a64:	691b      	ldr	r3, [r3, #16]
 8001a66:	f003 0304 	and.w	r3, r3, #4
 8001a6a:	2b04      	cmp	r3, #4
 8001a6c:	d122      	bne.n	8001ab4 <HAL_TIM_IRQHandler+0xb0>
 8001a6e:	687b      	ldr	r3, [r7, #4]
 8001a70:	681b      	ldr	r3, [r3, #0]
 8001a72:	68db      	ldr	r3, [r3, #12]
 8001a74:	f003 0304 	and.w	r3, r3, #4
 8001a78:	2b04      	cmp	r3, #4
 8001a7a:	d11b      	bne.n	8001ab4 <HAL_TIM_IRQHandler+0xb0>
 8001a7c:	687b      	ldr	r3, [r7, #4]
 8001a7e:	681b      	ldr	r3, [r3, #0]
 8001a80:	f06f 0204 	mvn.w	r2, #4
 8001a84:	611a      	str	r2, [r3, #16]
 8001a86:	687b      	ldr	r3, [r7, #4]
 8001a88:	2202      	movs	r2, #2
 8001a8a:	771a      	strb	r2, [r3, #28]
 8001a8c:	687b      	ldr	r3, [r7, #4]
 8001a8e:	681b      	ldr	r3, [r3, #0]
 8001a90:	699b      	ldr	r3, [r3, #24]
 8001a92:	f403 7340 	and.w	r3, r3, #768	; 0x300
 8001a96:	2b00      	cmp	r3, #0
 8001a98:	d003      	beq.n	8001aa2 <HAL_TIM_IRQHandler+0x9e>
 8001a9a:	6878      	ldr	r0, [r7, #4]
 8001a9c:	f000 f8c4 	bl	8001c28 <HAL_TIM_IC_CaptureCallback>
 8001aa0:	e005      	b.n	8001aae <HAL_TIM_IRQHandler+0xaa>
 8001aa2:	6878      	ldr	r0, [r7, #4]
 8001aa4:	f000 f8b6 	bl	8001c14 <HAL_TIM_OC_DelayElapsedCallback>
 8001aa8:	6878      	ldr	r0, [r7, #4]
 8001aaa:	f000 f8c7 	bl	8001c3c <HAL_TIM_PWM_PulseFinishedCallback>
 8001aae:	687b      	ldr	r3, [r7, #4]
 8001ab0:	2200      	movs	r2, #0
 8001ab2:	771a      	strb	r2, [r3, #28]
 8001ab4:	687b      	ldr	r3, [r7, #4]
 8001ab6:	681b      	ldr	r3, [r3, #0]
 8001ab8:	691b      	ldr	r3, [r3, #16]
 8001aba:	f003 0308 	and.w	r3, r3, #8
 8001abe:	2b08      	cmp	r3, #8
 8001ac0:	d122      	bne.n	8001b08 <HAL_TIM_IRQHandler+0x104>
 8001ac2:	687b      	ldr	r3, [r7, #4]
 8001ac4:	681b      	ldr	r3, [r3, #0]
 8001ac6:	68db      	ldr	r3, [r3, #12]
 8001ac8:	f003 0308 	and.w	r3, r3, #8
 8001acc:	2b08      	cmp	r3, #8
 8001ace:	d11b      	bne.n	8001b08 <HAL_TIM_IRQHandler+0x104>
 8001ad0:	687b      	ldr	r3, [r7, #4]
 8001ad2:	681b      	ldr	r3, [r3, #0]
 8001ad4:	f06f 0208 	mvn.w	r2, #8
 8001ad8:	611a      	str	r2, [r3, #16]
 8001ada:	687b      	ldr	r3, [r7, #4]
 8001adc:	2204      	movs	r2, #4
 8001ade:	771a      	strb	r2, [r3, #28]
 8001ae0:	687b      	ldr	r3, [r7, #4]
 8001ae2:	681b      	ldr	r3, [r3, #0]
 8001ae4:	69db      	ldr	r3, [r3, #28]
 8001ae6:	f003 0303 	and.w	r3, r3, #3
 8001aea:	2b00      	cmp	r3, #0
 8001aec:	d003      	beq.n	8001af6 <HAL_TIM_IRQHandler+0xf2>
 8001aee:	6878      	ldr	r0, [r7, #4]
 8001af0:	f000 f89a 	bl	8001c28 <HAL_TIM_IC_CaptureCallback>
 8001af4:	e005      	b.n	8001b02 <HAL_TIM_IRQHandler+0xfe>
 8001af6:	6878      	ldr	r0, [r7, #4]
 8001af8:	f000 f88c 	bl	8001c14 <HAL_TIM_OC_DelayElapsedCallback>
 8001afc:	6878      	ldr	r0, [r7, #4]
 8001afe:	f000 f89d 	bl	8001c3c <HAL_TIM_PWM_PulseFinishedCallback>
 8001b02:	687b      	ldr	r3, [r7, #4]
 8001b04:	2200      	movs	r2, #0
 8001b06:	771a      	strb	r2, [r3, #28]
 8001b08:	687b      	ldr	r3, [r7, #4]
 8001b0a:	681b      	ldr	r3, [r3, #0]
 8001b0c:	691b      	ldr	r3, [r3, #16]
 8001b0e:	f003 0310 	and.w	r3, r3, #16
 8001b12:	2b10      	cmp	r3, #16
 8001b14:	d122      	bne.n	8001b5c <HAL_TIM_IRQHandler+0x158>
 8001b16:	687b      	ldr	r3, [r7, #4]
 8001b18:	681b      	ldr	r3, [r3, #0]
 8001b1a:	68db      	ldr	r3, [r3, #12]
 8001b1c:	f003 0310 	and.w	r3, r3, #16
 8001b20:	2b10      	cmp	r3, #16
 8001b22:	d11b      	bne.n	8001b5c <HAL_TIM_IRQHandler+0x158>
 8001b24:	687b      	ldr	r3, [r7, #4]
 8001b26:	681b      	ldr	r3, [r3, #0]
 8001b28:	f06f 0210 	mvn.w	r2, #16
 8001b2c:	611a      	str	r2, [r3, #16]
 8001b2e:	687b      	ldr	r3, [r7, #4]
 8001b30:	2208      	movs	r2, #8
 8001b32:	771a      	strb	r2, [r3, #28]
 8001b34:	687b      	ldr	r3, [r7, #4]
 8001b36:	681b      	ldr	r3, [r3, #0]
 8001b38:	69db      	ldr	r3, [r3, #28]
 8001b3a:	f403 7340 	and.w	r3, r3, #768	; 0x300
 8001b3e:	2b00      	cmp	r3, #0
 8001b40:	d003      	beq.n	8001b4a <HAL_TIM_IRQHandler+0x146>
 8001b42:	6878      	ldr	r0, [r7, #4]
 8001b44:	f000 f870 	bl	8001c28 <HAL_TIM_IC_CaptureCallback>
 8001b48:	e005      	b.n	8001b56 <HAL_TIM_IRQHandler+0x152>
 8001b4a:	6878      	ldr	r0, [r7, #4]
 8001b4c:	f000 f862 	bl	8001c14 <HAL_TIM_OC_DelayElapsedCallback>
 8001b50:	6878      	ldr	r0, [r7, #4]
 8001b52:	f000 f873 	bl	8001c3c <HAL_TIM_PWM_PulseFinishedCallback>
 8001b56:	687b      	ldr	r3, [r7, #4]
 8001b58:	2200      	movs	r2, #0
 8001b5a:	771a      	strb	r2, [r3, #28]
 8001b5c:	687b      	ldr	r3, [r7, #4]
 8001b5e:	681b      	ldr	r3, [r3, #0]
 8001b60:	691b      	ldr	r3, [r3, #16]
 8001b62:	f003 0301 	and.w	r3, r3, #1
 8001b66:	2b01      	cmp	r3, #1
 8001b68:	d10e      	bne.n	8001b88 <HAL_TIM_IRQHandler+0x184>
 8001b6a:	687b      	ldr	r3, [r7, #4]
 8001b6c:	681b      	ldr	r3, [r3, #0]
 8001b6e:	68db      	ldr	r3, [r3, #12]
 8001b70:	f003 0301 	and.w	r3, r3, #1
 8001b74:	2b01      	cmp	r3, #1
 8001b76:	d107      	bne.n	8001b88 <HAL_TIM_IRQHandler+0x184>
 8001b78:	687b      	ldr	r3, [r7, #4]
 8001b7a:	681b      	ldr	r3, [r3, #0]
 8001b7c:	f06f 0201 	mvn.w	r2, #1
 8001b80:	611a      	str	r2, [r3, #16]
 8001b82:	6878      	ldr	r0, [r7, #4]
 8001b84:	f7fe fe20 	bl	80007c8 <HAL_TIM_PeriodElapsedCallback>
 8001b88:	687b      	ldr	r3, [r7, #4]
 8001b8a:	681b      	ldr	r3, [r3, #0]
 8001b8c:	691b      	ldr	r3, [r3, #16]
 8001b8e:	f003 0380 	and.w	r3, r3, #128	; 0x80
 8001b92:	2b80      	cmp	r3, #128	; 0x80
 8001b94:	d10e      	bne.n	8001bb4 <HAL_TIM_IRQHandler+0x1b0>
 8001b96:	687b      	ldr	r3, [r7, #4]
 8001b98:	681b      	ldr	r3, [r3, #0]
 8001b9a:	68db      	ldr	r3, [r3, #12]
 8001b9c:	f003 0380 	and.w	r3, r3, #128	; 0x80
 8001ba0:	2b80      	cmp	r3, #128	; 0x80
 8001ba2:	d107      	bne.n	8001bb4 <HAL_TIM_IRQHandler+0x1b0>
 8001ba4:	687b      	ldr	r3, [r7, #4]
 8001ba6:	681b      	ldr	r3, [r3, #0]
 8001ba8:	f06f 0280 	mvn.w	r2, #128	; 0x80
 8001bac:	611a      	str	r2, [r3, #16]
 8001bae:	6878      	ldr	r0, [r7, #4]
 8001bb0:	f000 f8e2 	bl	8001d78 <HAL_TIMEx_BreakCallback>
 8001bb4:	687b      	ldr	r3, [r7, #4]
 8001bb6:	681b      	ldr	r3, [r3, #0]
 8001bb8:	691b      	ldr	r3, [r3, #16]
 8001bba:	f003 0340 	and.w	r3, r3, #64	; 0x40
 8001bbe:	2b40      	cmp	r3, #64	; 0x40
 8001bc0:	d10e      	bne.n	8001be0 <HAL_TIM_IRQHandler+0x1dc>
 8001bc2:	687b      	ldr	r3, [r7, #4]
 8001bc4:	681b      	ldr	r3, [r3, #0]
 8001bc6:	68db      	ldr	r3, [r3, #12]
 8001bc8:	f003 0340 	and.w	r3, r3, #64	; 0x40
 8001bcc:	2b40      	cmp	r3, #64	; 0x40
 8001bce:	d107      	bne.n	8001be0 <HAL_TIM_IRQHandler+0x1dc>
 8001bd0:	687b      	ldr	r3, [r7, #4]
 8001bd2:	681b      	ldr	r3, [r3, #0]
 8001bd4:	f06f 0240 	mvn.w	r2, #64	; 0x40
 8001bd8:	611a      	str	r2, [r3, #16]
 8001bda:	6878      	ldr	r0, [r7, #4]
 8001bdc:	f000 f838 	bl	8001c50 <HAL_TIM_TriggerCallback>
 8001be0:	687b      	ldr	r3, [r7, #4]
 8001be2:	681b      	ldr	r3, [r3, #0]
 8001be4:	691b      	ldr	r3, [r3, #16]
 8001be6:	f003 0320 	and.w	r3, r3, #32
 8001bea:	2b20      	cmp	r3, #32
 8001bec:	d10e      	bne.n	8001c0c <HAL_TIM_IRQHandler+0x208>
 8001bee:	687b      	ldr	r3, [r7, #4]
 8001bf0:	681b      	ldr	r3, [r3, #0]
 8001bf2:	68db      	ldr	r3, [r3, #12]
 8001bf4:	f003 0320 	and.w	r3, r3, #32
 8001bf8:	2b20      	cmp	r3, #32
 8001bfa:	d107      	bne.n	8001c0c <HAL_TIM_IRQHandler+0x208>
 8001bfc:	687b      	ldr	r3, [r7, #4]
 8001bfe:	681b      	ldr	r3, [r3, #0]
 8001c00:	f06f 0220 	mvn.w	r2, #32
 8001c04:	611a      	str	r2, [r3, #16]
 8001c06:	6878      	ldr	r0, [r7, #4]
 8001c08:	f000 f8ac 	bl	8001d64 <HAL_TIMEx_CommutCallback>
 8001c0c:	bf00      	nop
 8001c0e:	3708      	adds	r7, #8
 8001c10:	46bd      	mov	sp, r7
 8001c12:	bd80      	pop	{r7, pc}

08001c14 <HAL_TIM_OC_DelayElapsedCallback>:
 8001c14:	b480      	push	{r7}
 8001c16:	b083      	sub	sp, #12
 8001c18:	af00      	add	r7, sp, #0
 8001c1a:	6078      	str	r0, [r7, #4]
 8001c1c:	bf00      	nop
 8001c1e:	370c      	adds	r7, #12
 8001c20:	46bd      	mov	sp, r7
 8001c22:	f85d 7b04 	ldr.w	r7, [sp], #4
 8001c26:	4770      	bx	lr

08001c28 <HAL_TIM_IC_CaptureCallback>:
 8001c28:	b480      	push	{r7}
 8001c2a:	b083      	sub	sp, #12
 8001c2c:	af00      	add	r7, sp, #0
 8001c2e:	6078      	str	r0, [r7, #4]
 8001c30:	bf00      	nop
 8001c32:	370c      	adds	r7, #12
 8001c34:	46bd      	mov	sp, r7
 8001c36:	f85d 7b04 	ldr.w	r7, [sp], #4
 8001c3a:	4770      	bx	lr

08001c3c <HAL_TIM_PWM_PulseFinishedCallback>:
 8001c3c:	b480      	push	{r7}
 8001c3e:	b083      	sub	sp, #12
 8001c40:	af00      	add	r7, sp, #0
 8001c42:	6078      	str	r0, [r7, #4]
 8001c44:	bf00      	nop
 8001c46:	370c      	adds	r7, #12
 8001c48:	46bd      	mov	sp, r7
 8001c4a:	f85d 7b04 	ldr.w	r7, [sp], #4
 8001c4e:	4770      	bx	lr

08001c50 <HAL_TIM_TriggerCallback>:
 8001c50:	b480      	push	{r7}
 8001c52:	b083      	sub	sp, #12
 8001c54:	af00      	add	r7, sp, #0
 8001c56:	6078      	str	r0, [r7, #4]
 8001c58:	bf00      	nop
 8001c5a:	370c      	adds	r7, #12
 8001c5c:	46bd      	mov	sp, r7
 8001c5e:	f85d 7b04 	ldr.w	r7, [sp], #4
 8001c62:	4770      	bx	lr

08001c64 <TIM_Base_SetConfig>:
 8001c64:	b480      	push	{r7}
 8001c66:	b085      	sub	sp, #20
 8001c68:	af00      	add	r7, sp, #0
 8001c6a:	6078      	str	r0, [r7, #4]
 8001c6c:	6039      	str	r1, [r7, #0]
 8001c6e:	687b      	ldr	r3, [r7, #4]
 8001c70:	681b      	ldr	r3, [r3, #0]
 8001c72:	60fb      	str	r3, [r7, #12]
 8001c74:	687b      	ldr	r3, [r7, #4]
 8001c76:	4a34      	ldr	r2, [pc, #208]	; (8001d48 <TIM_Base_SetConfig+0xe4>)
 8001c78:	4293      	cmp	r3, r2
 8001c7a:	d00f      	beq.n	8001c9c <TIM_Base_SetConfig+0x38>
 8001c7c:	687b      	ldr	r3, [r7, #4]
 8001c7e:	f1b3 4f80 	cmp.w	r3, #1073741824	; 0x40000000
 8001c82:	d00b      	beq.n	8001c9c <TIM_Base_SetConfig+0x38>
 8001c84:	687b      	ldr	r3, [r7, #4]
 8001c86:	4a31      	ldr	r2, [pc, #196]	; (8001d4c <TIM_Base_SetConfig+0xe8>)
 8001c88:	4293      	cmp	r3, r2
 8001c8a:	d007      	beq.n	8001c9c <TIM_Base_SetConfig+0x38>
 8001c8c:	687b      	ldr	r3, [r7, #4]
 8001c8e:	4a30      	ldr	r2, [pc, #192]	; (8001d50 <TIM_Base_SetConfig+0xec>)
 8001c90:	4293      	cmp	r3, r2
 8001c92:	d003      	beq.n	8001c9c <TIM_Base_SetConfig+0x38>
 8001c94:	687b      	ldr	r3, [r7, #4]
 8001c96:	4a2f      	ldr	r2, [pc, #188]	; (8001d54 <TIM_Base_SetConfig+0xf0>)
 8001c98:	4293      	cmp	r3, r2
 8001c9a:	d108      	bne.n	8001cae <TIM_Base_SetConfig+0x4a>
 8001c9c:	68fb      	ldr	r3, [r7, #12]
 8001c9e:	f023 0370 	bic.w	r3, r3, #112	; 0x70
 8001ca2:	60fb      	str	r3, [r7, #12]
 8001ca4:	683b      	ldr	r3, [r7, #0]
 8001ca6:	685b      	ldr	r3, [r3, #4]
 8001ca8:	68fa      	ldr	r2, [r7, #12]
 8001caa:	4313      	orrs	r3, r2
 8001cac:	60fb      	str	r3, [r7, #12]
 8001cae:	687b      	ldr	r3, [r7, #4]
 8001cb0:	4a25      	ldr	r2, [pc, #148]	; (8001d48 <TIM_Base_SetConfig+0xe4>)
 8001cb2:	4293      	cmp	r3, r2
 8001cb4:	d01b      	beq.n	8001cee <TIM_Base_SetConfig+0x8a>
 8001cb6:	687b      	ldr	r3, [r7, #4]
 8001cb8:	f1b3 4f80 	cmp.w	r3, #1073741824	; 0x40000000
 8001cbc:	d017      	beq.n	8001cee <TIM_Base_SetConfig+0x8a>
 8001cbe:	687b      	ldr	r3, [r7, #4]
 8001cc0:	4a22      	ldr	r2, [pc, #136]	; (8001d4c <TIM_Base_SetConfig+0xe8>)
 8001cc2:	4293      	cmp	r3, r2
 8001cc4:	d013      	beq.n	8001cee <TIM_Base_SetConfig+0x8a>
 8001cc6:	687b      	ldr	r3, [r7, #4]
 8001cc8:	4a21      	ldr	r2, [pc, #132]	; (8001d50 <TIM_Base_SetConfig+0xec>)
 8001cca:	4293      	cmp	r3, r2
 8001ccc:	d00f      	beq.n	8001cee <TIM_Base_SetConfig+0x8a>
 8001cce:	687b      	ldr	r3, [r7, #4]
 8001cd0:	4a20      	ldr	r2, [pc, #128]	; (8001d54 <TIM_Base_SetConfig+0xf0>)
 8001cd2:	4293      	cmp	r3, r2
 8001cd4:	d00b      	beq.n	8001cee <TIM_Base_SetConfig+0x8a>
 8001cd6:	687b      	ldr	r3, [r7, #4]
 8001cd8:	4a1f      	ldr	r2, [pc, #124]	; (8001d58 <TIM_Base_SetConfig+0xf4>)
 8001cda:	4293      	cmp	r3, r2
 8001cdc:	d007      	beq.n	8001cee <TIM_Base_SetConfig+0x8a>
 8001cde:	687b      	ldr	r3, [r7, #4]
 8001ce0:	4a1e      	ldr	r2, [pc, #120]	; (8001d5c <TIM_Base_SetConfig+0xf8>)
 8001ce2:	4293      	cmp	r3, r2
 8001ce4:	d003      	beq.n	8001cee <TIM_Base_SetConfig+0x8a>
 8001ce6:	687b      	ldr	r3, [r7, #4]
 8001ce8:	4a1d      	ldr	r2, [pc, #116]	; (8001d60 <TIM_Base_SetConfig+0xfc>)
 8001cea:	4293      	cmp	r3, r2
 8001cec:	d108      	bne.n	8001d00 <TIM_Base_SetConfig+0x9c>
 8001cee:	68fb      	ldr	r3, [r7, #12]
 8001cf0:	f423 7340 	bic.w	r3, r3, #768	; 0x300
 8001cf4:	60fb      	str	r3, [r7, #12]
 8001cf6:	683b      	ldr	r3, [r7, #0]
 8001cf8:	68db      	ldr	r3, [r3, #12]
 8001cfa:	68fa      	ldr	r2, [r7, #12]
 8001cfc:	4313      	orrs	r3, r2
 8001cfe:	60fb      	str	r3, [r7, #12]
 8001d00:	68fb      	ldr	r3, [r7, #12]
 8001d02:	f023 0280 	bic.w	r2, r3, #128	; 0x80
 8001d06:	683b      	ldr	r3, [r7, #0]
 8001d08:	695b      	ldr	r3, [r3, #20]
 8001d0a:	4313      	orrs	r3, r2
 8001d0c:	60fb      	str	r3, [r7, #12]
 8001d0e:	687b      	ldr	r3, [r7, #4]
 8001d10:	68fa      	ldr	r2, [r7, #12]
 8001d12:	601a      	str	r2, [r3, #0]
 8001d14:	683b      	ldr	r3, [r7, #0]
 8001d16:	689a      	ldr	r2, [r3, #8]
 8001d18:	687b      	ldr	r3, [r7, #4]
 8001d1a:	62da      	str	r2, [r3, #44]	; 0x2c
 8001d1c:	683b      	ldr	r3, [r7, #0]
 8001d1e:	681a      	ldr	r2, [r3, #0]
 8001d20:	687b      	ldr	r3, [r7, #4]
 8001d22:	629a      	str	r2, [r3, #40]	; 0x28
 8001d24:	687b      	ldr	r3, [r7, #4]
 8001d26:	4a08      	ldr	r2, [pc, #32]	; (8001d48 <TIM_Base_SetConfig+0xe4>)
 8001d28:	4293      	cmp	r3, r2
 8001d2a:	d103      	bne.n	8001d34 <TIM_Base_SetConfig+0xd0>
 8001d2c:	683b      	ldr	r3, [r7, #0]
 8001d2e:	691a      	ldr	r2, [r3, #16]
 8001d30:	687b      	ldr	r3, [r7, #4]
 8001d32:	631a      	str	r2, [r3, #48]	; 0x30
 8001d34:	687b      	ldr	r3, [r7, #4]
 8001d36:	2201      	movs	r2, #1
 8001d38:	615a      	str	r2, [r3, #20]
 8001d3a:	bf00      	nop
 8001d3c:	3714      	adds	r7, #20
 8001d3e:	46bd      	mov	sp, r7
 8001d40:	f85d 7b04 	ldr.w	r7, [sp], #4
 8001d44:	4770      	bx	lr
 8001d46:	bf00      	nop
 8001d48:	40010000 	.word	0x40010000
 8001d4c:	40000400 	.word	0x40000400
 8001d50:	40000800 	.word	0x40000800
 8001d54:	40000c00 	.word	0x40000c00
 8001d58:	40014000 	.word	0x40014000
 8001d5c:	40014400 	.word	0x40014400
 8001d60:	40014800 	.word	0x40014800

08001d64 <HAL_TIMEx_CommutCallback>:
 8001d64:	b480      	push	{r7}
 8001d66:	b083      	sub	sp, #12
 8001d68:	af00      	add	r7, sp, #0
 8001d6a:	6078      	str	r0, [r7, #4]
 8001d6c:	bf00      	nop
 8001d6e:	370c      	adds	r7, #12
 8001d70:	46bd      	mov	sp, r7
 8001d72:	f85d 7b04 	ldr.w	r7, [sp], #4
 8001d76:	4770      	bx	lr

08001d78 <HAL_TIMEx_BreakCallback>:
 8001d78:	b480      	push	{r7}
 8001d7a:	b083      	sub	sp, #12
 8001d7c:	af00      	add	r7, sp, #0
 8001d7e:	6078      	str	r0, [r7, #4]
 8001d80:	bf00      	nop
 8001d82:	370c      	adds	r7, #12
 8001d84:	46bd      	mov	sp, r7
 8001d86:	f85d 7b04 	ldr.w	r7, [sp], #4
 8001d8a:	4770      	bx	lr

08001d8c <HAL_UART_Init>:
 8001d8c:	b580      	push	{r7, lr}
 8001d8e:	b082      	sub	sp, #8
 8001d90:	af00      	add	r7, sp, #0
 8001d92:	6078      	str	r0, [r7, #4]
 8001d94:	687b      	ldr	r3, [r7, #4]
 8001d96:	2b00      	cmp	r3, #0
 8001d98:	d101      	bne.n	8001d9e <HAL_UART_Init+0x12>
 8001d9a:	2301      	movs	r3, #1
 8001d9c:	e03f      	b.n	8001e1e <HAL_UART_Init+0x92>
 8001d9e:	687b      	ldr	r3, [r7, #4]
 8001da0:	f893 303d 	ldrb.w	r3, [r3, #61]	; 0x3d
 8001da4:	b2db      	uxtb	r3, r3
 8001da6:	2b00      	cmp	r3, #0
 8001da8:	d106      	bne.n	8001db8 <HAL_UART_Init+0x2c>
 8001daa:	687b      	ldr	r3, [r7, #4]
 8001dac:	2200      	movs	r2, #0
 8001dae:	f883 203c 	strb.w	r2, [r3, #60]	; 0x3c
 8001db2:	6878      	ldr	r0, [r7, #4]
 8001db4:	f7fe fd4c 	bl	8000850 <HAL_UART_MspInit>
 8001db8:	687b      	ldr	r3, [r7, #4]
 8001dba:	2224      	movs	r2, #36	; 0x24
 8001dbc:	f883 203d 	strb.w	r2, [r3, #61]	; 0x3d
 8001dc0:	687b      	ldr	r3, [r7, #4]
 8001dc2:	681b      	ldr	r3, [r3, #0]
 8001dc4:	68da      	ldr	r2, [r3, #12]
 8001dc6:	687b      	ldr	r3, [r7, #4]
 8001dc8:	681b      	ldr	r3, [r3, #0]
 8001dca:	f422 5200 	bic.w	r2, r2, #8192	; 0x2000
 8001dce:	60da      	str	r2, [r3, #12]
 8001dd0:	6878      	ldr	r0, [r7, #4]
 8001dd2:	f000 f829 	bl	8001e28 <UART_SetConfig>
 8001dd6:	687b      	ldr	r3, [r7, #4]
 8001dd8:	681b      	ldr	r3, [r3, #0]
 8001dda:	691a      	ldr	r2, [r3, #16]
 8001ddc:	687b      	ldr	r3, [r7, #4]
 8001dde:	681b      	ldr	r3, [r3, #0]
 8001de0:	f422 4290 	bic.w	r2, r2, #18432	; 0x4800
 8001de4:	611a      	str	r2, [r3, #16]
 8001de6:	687b      	ldr	r3, [r7, #4]
 8001de8:	681b      	ldr	r3, [r3, #0]
 8001dea:	695a      	ldr	r2, [r3, #20]
 8001dec:	687b      	ldr	r3, [r7, #4]
 8001dee:	681b      	ldr	r3, [r3, #0]
 8001df0:	f022 022a 	bic.w	r2, r2, #42	; 0x2a
 8001df4:	615a      	str	r2, [r3, #20]
 8001df6:	687b      	ldr	r3, [r7, #4]
 8001df8:	681b      	ldr	r3, [r3, #0]
 8001dfa:	68da      	ldr	r2, [r3, #12]
 8001dfc:	687b      	ldr	r3, [r7, #4]
 8001dfe:	681b      	ldr	r3, [r3, #0]
 8001e00:	f442 5200 	orr.w	r2, r2, #8192	; 0x2000
 8001e04:	60da      	str	r2, [r3, #12]
 8001e06:	687b      	ldr	r3, [r7, #4]
 8001e08:	2200      	movs	r2, #0
 8001e0a:	641a      	str	r2, [r3, #64]	; 0x40
 8001e0c:	687b      	ldr	r3, [r7, #4]
 8001e0e:	2220      	movs	r2, #32
 8001e10:	f883 203d 	strb.w	r2, [r3, #61]	; 0x3d
 8001e14:	687b      	ldr	r3, [r7, #4]
 8001e16:	2220      	movs	r2, #32
 8001e18:	f883 203e 	strb.w	r2, [r3, #62]	; 0x3e
 8001e1c:	2300      	movs	r3, #0
 8001e1e:	4618      	mov	r0, r3
 8001e20:	3708      	adds	r7, #8
 8001e22:	46bd      	mov	sp, r7
 8001e24:	bd80      	pop	{r7, pc}
	...

08001e28 <UART_SetConfig>:
 8001e28:	e92d 4ff0 	stmdb	sp!, {r4, r5, r6, r7, r8, r9, sl, fp, lr}
 8001e2c:	b09f      	sub	sp, #124	; 0x7c
 8001e2e:	af00      	add	r7, sp, #0
 8001e30:	66f8      	str	r0, [r7, #108]	; 0x6c
 8001e32:	6efb      	ldr	r3, [r7, #108]	; 0x6c
 8001e34:	681b      	ldr	r3, [r3, #0]
 8001e36:	691b      	ldr	r3, [r3, #16]
 8001e38:	f423 5040 	bic.w	r0, r3, #12288	; 0x3000
 8001e3c:	6efb      	ldr	r3, [r7, #108]	; 0x6c
 8001e3e:	68d9      	ldr	r1, [r3, #12]
 8001e40:	6efb      	ldr	r3, [r7, #108]	; 0x6c
 8001e42:	681a      	ldr	r2, [r3, #0]
 8001e44:	ea40 0301 	orr.w	r3, r0, r1
 8001e48:	6113      	str	r3, [r2, #16]
 8001e4a:	6efb      	ldr	r3, [r7, #108]	; 0x6c
 8001e4c:	689a      	ldr	r2, [r3, #8]
 8001e4e:	6efb      	ldr	r3, [r7, #108]	; 0x6c
 8001e50:	691b      	ldr	r3, [r3, #16]
 8001e52:	431a      	orrs	r2, r3
 8001e54:	6efb      	ldr	r3, [r7, #108]	; 0x6c
 8001e56:	695b      	ldr	r3, [r3, #20]
 8001e58:	431a      	orrs	r2, r3
 8001e5a:	6efb      	ldr	r3, [r7, #108]	; 0x6c
 8001e5c:	69db      	ldr	r3, [r3, #28]
 8001e5e:	4313      	orrs	r3, r2
 8001e60:	673b      	str	r3, [r7, #112]	; 0x70
 8001e62:	6efb      	ldr	r3, [r7, #108]	; 0x6c
 8001e64:	681b      	ldr	r3, [r3, #0]
 8001e66:	68db      	ldr	r3, [r3, #12]
 8001e68:	f423 4116 	bic.w	r1, r3, #38400	; 0x9600
 8001e6c:	f021 010c 	bic.w	r1, r1, #12
 8001e70:	6efb      	ldr	r3, [r7, #108]	; 0x6c
 8001e72:	681a      	ldr	r2, [r3, #0]
 8001e74:	6f3b      	ldr	r3, [r7, #112]	; 0x70
 8001e76:	430b      	orrs	r3, r1
 8001e78:	60d3      	str	r3, [r2, #12]
 8001e7a:	6efb      	ldr	r3, [r7, #108]	; 0x6c
 8001e7c:	681b      	ldr	r3, [r3, #0]
 8001e7e:	695b      	ldr	r3, [r3, #20]
 8001e80:	f423 7040 	bic.w	r0, r3, #768	; 0x300
 8001e84:	6efb      	ldr	r3, [r7, #108]	; 0x6c
 8001e86:	6999      	ldr	r1, [r3, #24]
 8001e88:	6efb      	ldr	r3, [r7, #108]	; 0x6c
 8001e8a:	681a      	ldr	r2, [r3, #0]
 8001e8c:	ea40 0301 	orr.w	r3, r0, r1
 8001e90:	6153      	str	r3, [r2, #20]
 8001e92:	6efb      	ldr	r3, [r7, #108]	; 0x6c
 8001e94:	681a      	ldr	r2, [r3, #0]
 8001e96:	4bc5      	ldr	r3, [pc, #788]	; (80021ac <UART_SetConfig+0x384>)
 8001e98:	429a      	cmp	r2, r3
 8001e9a:	d004      	beq.n	8001ea6 <UART_SetConfig+0x7e>
 8001e9c:	6efb      	ldr	r3, [r7, #108]	; 0x6c
 8001e9e:	681a      	ldr	r2, [r3, #0]
 8001ea0:	4bc3      	ldr	r3, [pc, #780]	; (80021b0 <UART_SetConfig+0x388>)
 8001ea2:	429a      	cmp	r2, r3
 8001ea4:	d103      	bne.n	8001eae <UART_SetConfig+0x86>
 8001ea6:	f7ff fcab 	bl	8001800 <HAL_RCC_GetPCLK2Freq>
 8001eaa:	6778      	str	r0, [r7, #116]	; 0x74
 8001eac:	e002      	b.n	8001eb4 <UART_SetConfig+0x8c>
 8001eae:	f7ff fc93 	bl	80017d8 <HAL_RCC_GetPCLK1Freq>
 8001eb2:	6778      	str	r0, [r7, #116]	; 0x74
 8001eb4:	6efb      	ldr	r3, [r7, #108]	; 0x6c
 8001eb6:	69db      	ldr	r3, [r3, #28]
 8001eb8:	f5b3 4f00 	cmp.w	r3, #32768	; 0x8000
 8001ebc:	f040 80b6 	bne.w	800202c <UART_SetConfig+0x204>
 8001ec0:	6f7b      	ldr	r3, [r7, #116]	; 0x74
 8001ec2:	461c      	mov	r4, r3
 8001ec4:	f04f 0500 	mov.w	r5, #0
 8001ec8:	4622      	mov	r2, r4
 8001eca:	462b      	mov	r3, r5
 8001ecc:	1891      	adds	r1, r2, r2
 8001ece:	6439      	str	r1, [r7, #64]	; 0x40
 8001ed0:	415b      	adcs	r3, r3
 8001ed2:	647b      	str	r3, [r7, #68]	; 0x44
 8001ed4:	e9d7 2310 	ldrd	r2, r3, [r7, #64]	; 0x40
 8001ed8:	1912      	adds	r2, r2, r4
 8001eda:	eb45 0303 	adc.w	r3, r5, r3
 8001ede:	f04f 0000 	mov.w	r0, #0
 8001ee2:	f04f 0100 	mov.w	r1, #0
 8001ee6:	00d9      	lsls	r1, r3, #3
 8001ee8:	ea41 7152 	orr.w	r1, r1, r2, lsr #29
 8001eec:	00d0      	lsls	r0, r2, #3
 8001eee:	4602      	mov	r2, r0
 8001ef0:	460b      	mov	r3, r1
 8001ef2:	1911      	adds	r1, r2, r4
 8001ef4:	6639      	str	r1, [r7, #96]	; 0x60
 8001ef6:	416b      	adcs	r3, r5
 8001ef8:	667b      	str	r3, [r7, #100]	; 0x64
 8001efa:	6efb      	ldr	r3, [r7, #108]	; 0x6c
 8001efc:	685b      	ldr	r3, [r3, #4]
 8001efe:	461a      	mov	r2, r3
 8001f00:	f04f 0300 	mov.w	r3, #0
 8001f04:	1891      	adds	r1, r2, r2
 8001f06:	63b9      	str	r1, [r7, #56]	; 0x38
 8001f08:	415b      	adcs	r3, r3
 8001f0a:	63fb      	str	r3, [r7, #60]	; 0x3c
 8001f0c:	e9d7 230e 	ldrd	r2, r3, [r7, #56]	; 0x38
 8001f10:	e9d7 0118 	ldrd	r0, r1, [r7, #96]	; 0x60
 8001f14:	f7fe f964 	bl	80001e0 <__aeabi_uldivmod>
 8001f18:	4602      	mov	r2, r0
 8001f1a:	460b      	mov	r3, r1
 8001f1c:	4ba5      	ldr	r3, [pc, #660]	; (80021b4 <UART_SetConfig+0x38c>)
 8001f1e:	fba3 2302 	umull	r2, r3, r3, r2
 8001f22:	095b      	lsrs	r3, r3, #5
 8001f24:	011e      	lsls	r6, r3, #4
 8001f26:	6f7b      	ldr	r3, [r7, #116]	; 0x74
 8001f28:	461c      	mov	r4, r3
 8001f2a:	f04f 0500 	mov.w	r5, #0
 8001f2e:	4622      	mov	r2, r4
 8001f30:	462b      	mov	r3, r5
 8001f32:	1891      	adds	r1, r2, r2
 8001f34:	6339      	str	r1, [r7, #48]	; 0x30
 8001f36:	415b      	adcs	r3, r3
 8001f38:	637b      	str	r3, [r7, #52]	; 0x34
 8001f3a:	e9d7 230c 	ldrd	r2, r3, [r7, #48]	; 0x30
 8001f3e:	1912      	adds	r2, r2, r4
 8001f40:	eb45 0303 	adc.w	r3, r5, r3
 8001f44:	f04f 0000 	mov.w	r0, #0
 8001f48:	f04f 0100 	mov.w	r1, #0
 8001f4c:	00d9      	lsls	r1, r3, #3
 8001f4e:	ea41 7152 	orr.w	r1, r1, r2, lsr #29
 8001f52:	00d0      	lsls	r0, r2, #3
 8001f54:	4602      	mov	r2, r0
 8001f56:	460b      	mov	r3, r1
 8001f58:	1911      	adds	r1, r2, r4
 8001f5a:	65b9      	str	r1, [r7, #88]	; 0x58
 8001f5c:	416b      	adcs	r3, r5
 8001f5e:	65fb      	str	r3, [r7, #92]	; 0x5c
 8001f60:	6efb      	ldr	r3, [r7, #108]	; 0x6c
 8001f62:	685b      	ldr	r3, [r3, #4]
 8001f64:	461a      	mov	r2, r3
 8001f66:	f04f 0300 	mov.w	r3, #0
 8001f6a:	1891      	adds	r1, r2, r2
 8001f6c:	62b9      	str	r1, [r7, #40]	; 0x28
 8001f6e:	415b      	adcs	r3, r3
 8001f70:	62fb      	str	r3, [r7, #44]	; 0x2c
 8001f72:	e9d7 230a 	ldrd	r2, r3, [r7, #40]	; 0x28
 8001f76:	e9d7 0116 	ldrd	r0, r1, [r7, #88]	; 0x58
 8001f7a:	f7fe f931 	bl	80001e0 <__aeabi_uldivmod>
 8001f7e:	4602      	mov	r2, r0
 8001f80:	460b      	mov	r3, r1
 8001f82:	4b8c      	ldr	r3, [pc, #560]	; (80021b4 <UART_SetConfig+0x38c>)
 8001f84:	fba3 1302 	umull	r1, r3, r3, r2
 8001f88:	095b      	lsrs	r3, r3, #5
 8001f8a:	2164      	movs	r1, #100	; 0x64
 8001f8c:	fb01 f303 	mul.w	r3, r1, r3
 8001f90:	1ad3      	subs	r3, r2, r3
 8001f92:	00db      	lsls	r3, r3, #3
 8001f94:	3332      	adds	r3, #50	; 0x32
 8001f96:	4a87      	ldr	r2, [pc, #540]	; (80021b4 <UART_SetConfig+0x38c>)
 8001f98:	fba2 2303 	umull	r2, r3, r2, r3
 8001f9c:	095b      	lsrs	r3, r3, #5
 8001f9e:	005b      	lsls	r3, r3, #1
 8001fa0:	f403 73f8 	and.w	r3, r3, #496	; 0x1f0
 8001fa4:	441e      	add	r6, r3
 8001fa6:	6f7b      	ldr	r3, [r7, #116]	; 0x74
 8001fa8:	4618      	mov	r0, r3
 8001faa:	f04f 0100 	mov.w	r1, #0
 8001fae:	4602      	mov	r2, r0
 8001fb0:	460b      	mov	r3, r1
 8001fb2:	1894      	adds	r4, r2, r2
 8001fb4:	623c      	str	r4, [r7, #32]
 8001fb6:	415b      	adcs	r3, r3
 8001fb8:	627b      	str	r3, [r7, #36]	; 0x24
 8001fba:	e9d7 2308 	ldrd	r2, r3, [r7, #32]
 8001fbe:	1812      	adds	r2, r2, r0
 8001fc0:	eb41 0303 	adc.w	r3, r1, r3
 8001fc4:	f04f 0400 	mov.w	r4, #0
 8001fc8:	f04f 0500 	mov.w	r5, #0
 8001fcc:	00dd      	lsls	r5, r3, #3
 8001fce:	ea45 7552 	orr.w	r5, r5, r2, lsr #29
 8001fd2:	00d4      	lsls	r4, r2, #3
 8001fd4:	4622      	mov	r2, r4
 8001fd6:	462b      	mov	r3, r5
 8001fd8:	1814      	adds	r4, r2, r0
 8001fda:	653c      	str	r4, [r7, #80]	; 0x50
 8001fdc:	414b      	adcs	r3, r1
 8001fde:	657b      	str	r3, [r7, #84]	; 0x54
 8001fe0:	6efb      	ldr	r3, [r7, #108]	; 0x6c
 8001fe2:	685b      	ldr	r3, [r3, #4]
 8001fe4:	461a      	mov	r2, r3
 8001fe6:	f04f 0300 	mov.w	r3, #0
 8001fea:	1891      	adds	r1, r2, r2
 8001fec:	61b9      	str	r1, [r7, #24]
 8001fee:	415b      	adcs	r3, r3
 8001ff0:	61fb      	str	r3, [r7, #28]
 8001ff2:	e9d7 2306 	ldrd	r2, r3, [r7, #24]
 8001ff6:	e9d7 0114 	ldrd	r0, r1, [r7, #80]	; 0x50
 8001ffa:	f7fe f8f1 	bl	80001e0 <__aeabi_uldivmod>
 8001ffe:	4602      	mov	r2, r0
 8002000:	460b      	mov	r3, r1
 8002002:	4b6c      	ldr	r3, [pc, #432]	; (80021b4 <UART_SetConfig+0x38c>)
 8002004:	fba3 1302 	umull	r1, r3, r3, r2
 8002008:	095b      	lsrs	r3, r3, #5
 800200a:	2164      	movs	r1, #100	; 0x64
 800200c:	fb01 f303 	mul.w	r3, r1, r3
 8002010:	1ad3      	subs	r3, r2, r3
 8002012:	00db      	lsls	r3, r3, #3
 8002014:	3332      	adds	r3, #50	; 0x32
 8002016:	4a67      	ldr	r2, [pc, #412]	; (80021b4 <UART_SetConfig+0x38c>)
 8002018:	fba2 2303 	umull	r2, r3, r2, r3
 800201c:	095b      	lsrs	r3, r3, #5
 800201e:	f003 0207 	and.w	r2, r3, #7
 8002022:	6efb      	ldr	r3, [r7, #108]	; 0x6c
 8002024:	681b      	ldr	r3, [r3, #0]
 8002026:	4432      	add	r2, r6
 8002028:	609a      	str	r2, [r3, #8]
 800202a:	e0b9      	b.n	80021a0 <UART_SetConfig+0x378>
 800202c:	6f7b      	ldr	r3, [r7, #116]	; 0x74
 800202e:	461c      	mov	r4, r3
 8002030:	f04f 0500 	mov.w	r5, #0
 8002034:	4622      	mov	r2, r4
 8002036:	462b      	mov	r3, r5
 8002038:	1891      	adds	r1, r2, r2
 800203a:	6139      	str	r1, [r7, #16]
 800203c:	415b      	adcs	r3, r3
 800203e:	617b      	str	r3, [r7, #20]
 8002040:	e9d7 2304 	ldrd	r2, r3, [r7, #16]
 8002044:	1912      	adds	r2, r2, r4
 8002046:	eb45 0303 	adc.w	r3, r5, r3
 800204a:	f04f 0000 	mov.w	r0, #0
 800204e:	f04f 0100 	mov.w	r1, #0
 8002052:	00d9      	lsls	r1, r3, #3
 8002054:	ea41 7152 	orr.w	r1, r1, r2, lsr #29
 8002058:	00d0      	lsls	r0, r2, #3
 800205a:	4602      	mov	r2, r0
 800205c:	460b      	mov	r3, r1
 800205e:	eb12 0804 	adds.w	r8, r2, r4
 8002062:	eb43 0905 	adc.w	r9, r3, r5
 8002066:	6efb      	ldr	r3, [r7, #108]	; 0x6c
 8002068:	685b      	ldr	r3, [r3, #4]
 800206a:	4618      	mov	r0, r3
 800206c:	f04f 0100 	mov.w	r1, #0
 8002070:	f04f 0200 	mov.w	r2, #0
 8002074:	f04f 0300 	mov.w	r3, #0
 8002078:	008b      	lsls	r3, r1, #2
 800207a:	ea43 7390 	orr.w	r3, r3, r0, lsr #30
 800207e:	0082      	lsls	r2, r0, #2
 8002080:	4640      	mov	r0, r8
 8002082:	4649      	mov	r1, r9
 8002084:	f7fe f8ac 	bl	80001e0 <__aeabi_uldivmod>
 8002088:	4602      	mov	r2, r0
 800208a:	460b      	mov	r3, r1
 800208c:	4b49      	ldr	r3, [pc, #292]	; (80021b4 <UART_SetConfig+0x38c>)
 800208e:	fba3 2302 	umull	r2, r3, r3, r2
 8002092:	095b      	lsrs	r3, r3, #5
 8002094:	011e      	lsls	r6, r3, #4
 8002096:	6f7b      	ldr	r3, [r7, #116]	; 0x74
 8002098:	4618      	mov	r0, r3
 800209a:	f04f 0100 	mov.w	r1, #0
 800209e:	4602      	mov	r2, r0
 80020a0:	460b      	mov	r3, r1
 80020a2:	1894      	adds	r4, r2, r2
 80020a4:	60bc      	str	r4, [r7, #8]
 80020a6:	415b      	adcs	r3, r3
 80020a8:	60fb      	str	r3, [r7, #12]
 80020aa:	e9d7 2302 	ldrd	r2, r3, [r7, #8]
 80020ae:	1812      	adds	r2, r2, r0
 80020b0:	eb41 0303 	adc.w	r3, r1, r3
 80020b4:	f04f 0400 	mov.w	r4, #0
 80020b8:	f04f 0500 	mov.w	r5, #0
 80020bc:	00dd      	lsls	r5, r3, #3
 80020be:	ea45 7552 	orr.w	r5, r5, r2, lsr #29
 80020c2:	00d4      	lsls	r4, r2, #3
 80020c4:	4622      	mov	r2, r4
 80020c6:	462b      	mov	r3, r5
 80020c8:	1814      	adds	r4, r2, r0
 80020ca:	64bc      	str	r4, [r7, #72]	; 0x48
 80020cc:	414b      	adcs	r3, r1
 80020ce:	64fb      	str	r3, [r7, #76]	; 0x4c
 80020d0:	6efb      	ldr	r3, [r7, #108]	; 0x6c
 80020d2:	685b      	ldr	r3, [r3, #4]
 80020d4:	4618      	mov	r0, r3
 80020d6:	f04f 0100 	mov.w	r1, #0
 80020da:	f04f 0200 	mov.w	r2, #0
 80020de:	f04f 0300 	mov.w	r3, #0
 80020e2:	008b      	lsls	r3, r1, #2
 80020e4:	ea43 7390 	orr.w	r3, r3, r0, lsr #30
 80020e8:	0082      	lsls	r2, r0, #2
 80020ea:	e9d7 0112 	ldrd	r0, r1, [r7, #72]	; 0x48
 80020ee:	f7fe f877 	bl	80001e0 <__aeabi_uldivmod>
 80020f2:	4602      	mov	r2, r0
 80020f4:	460b      	mov	r3, r1
 80020f6:	4b2f      	ldr	r3, [pc, #188]	; (80021b4 <UART_SetConfig+0x38c>)
 80020f8:	fba3 1302 	umull	r1, r3, r3, r2
 80020fc:	095b      	lsrs	r3, r3, #5
 80020fe:	2164      	movs	r1, #100	; 0x64
 8002100:	fb01 f303 	mul.w	r3, r1, r3
 8002104:	1ad3      	subs	r3, r2, r3
 8002106:	011b      	lsls	r3, r3, #4
 8002108:	3332      	adds	r3, #50	; 0x32
 800210a:	4a2a      	ldr	r2, [pc, #168]	; (80021b4 <UART_SetConfig+0x38c>)
 800210c:	fba2 2303 	umull	r2, r3, r2, r3
 8002110:	095b      	lsrs	r3, r3, #5
 8002112:	f003 03f0 	and.w	r3, r3, #240	; 0xf0
 8002116:	441e      	add	r6, r3
 8002118:	6f7b      	ldr	r3, [r7, #116]	; 0x74
 800211a:	4618      	mov	r0, r3
 800211c:	f04f 0100 	mov.w	r1, #0
 8002120:	4602      	mov	r2, r0
 8002122:	460b      	mov	r3, r1
 8002124:	1894      	adds	r4, r2, r2
 8002126:	603c      	str	r4, [r7, #0]
 8002128:	415b      	adcs	r3, r3
 800212a:	607b      	str	r3, [r7, #4]
 800212c:	e9d7 2300 	ldrd	r2, r3, [r7]
 8002130:	1812      	adds	r2, r2, r0
 8002132:	eb41 0303 	adc.w	r3, r1, r3
 8002136:	f04f 0400 	mov.w	r4, #0
 800213a:	f04f 0500 	mov.w	r5, #0
 800213e:	00dd      	lsls	r5, r3, #3
 8002140:	ea45 7552 	orr.w	r5, r5, r2, lsr #29
 8002144:	00d4      	lsls	r4, r2, #3
 8002146:	4622      	mov	r2, r4
 8002148:	462b      	mov	r3, r5
 800214a:	eb12 0a00 	adds.w	sl, r2, r0
 800214e:	eb43 0b01 	adc.w	fp, r3, r1
 8002152:	6efb      	ldr	r3, [r7, #108]	; 0x6c
 8002154:	685b      	ldr	r3, [r3, #4]
 8002156:	4618      	mov	r0, r3
 8002158:	f04f 0100 	mov.w	r1, #0
 800215c:	f04f 0200 	mov.w	r2, #0
 8002160:	f04f 0300 	mov.w	r3, #0
 8002164:	008b      	lsls	r3, r1, #2
 8002166:	ea43 7390 	orr.w	r3, r3, r0, lsr #30
 800216a:	0082      	lsls	r2, r0, #2
 800216c:	4650      	mov	r0, sl
 800216e:	4659      	mov	r1, fp
 8002170:	f7fe f836 	bl	80001e0 <__aeabi_uldivmod>
 8002174:	4602      	mov	r2, r0
 8002176:	460b      	mov	r3, r1
 8002178:	4b0e      	ldr	r3, [pc, #56]	; (80021b4 <UART_SetConfig+0x38c>)
 800217a:	fba3 1302 	umull	r1, r3, r3, r2
 800217e:	095b      	lsrs	r3, r3, #5
 8002180:	2164      	movs	r1, #100	; 0x64
 8002182:	fb01 f303 	mul.w	r3, r1, r3
 8002186:	1ad3      	subs	r3, r2, r3
 8002188:	011b      	lsls	r3, r3, #4
 800218a:	3332      	adds	r3, #50	; 0x32
 800218c:	4a09      	ldr	r2, [pc, #36]	; (80021b4 <UART_SetConfig+0x38c>)
 800218e:	fba2 2303 	umull	r2, r3, r2, r3
 8002192:	095b      	lsrs	r3, r3, #5
 8002194:	f003 020f 	and.w	r2, r3, #15
 8002198:	6efb      	ldr	r3, [r7, #108]	; 0x6c
 800219a:	681b      	ldr	r3, [r3, #0]
 800219c:	4432      	add	r2, r6
 800219e:	609a      	str	r2, [r3, #8]
 80021a0:	bf00      	nop
 80021a2:	377c      	adds	r7, #124	; 0x7c
 80021a4:	46bd      	mov	sp, r7
 80021a6:	e8bd 8ff0 	ldmia.w	sp!, {r4, r5, r6, r7, r8, r9, sl, fp, pc}
 80021aa:	bf00      	nop
 80021ac:	40011000 	.word	0x40011000
 80021b0:	40011400 	.word	0x40011400
 80021b4:	51eb851f 	.word	0x51eb851f

080021b8 <__NVIC_SetPriority>:
 80021b8:	b480      	push	{r7}
 80021ba:	b083      	sub	sp, #12
 80021bc:	af00      	add	r7, sp, #0
 80021be:	4603      	mov	r3, r0
 80021c0:	6039      	str	r1, [r7, #0]
 80021c2:	71fb      	strb	r3, [r7, #7]
 80021c4:	f997 3007 	ldrsb.w	r3, [r7, #7]
 80021c8:	2b00      	cmp	r3, #0
 80021ca:	db0a      	blt.n	80021e2 <__NVIC_SetPriority+0x2a>
 80021cc:	683b      	ldr	r3, [r7, #0]
 80021ce:	b2da      	uxtb	r2, r3
 80021d0:	490c      	ldr	r1, [pc, #48]	; (8002204 <__NVIC_SetPriority+0x4c>)
 80021d2:	f997 3007 	ldrsb.w	r3, [r7, #7]
 80021d6:	0112      	lsls	r2, r2, #4
 80021d8:	b2d2      	uxtb	r2, r2
 80021da:	440b      	add	r3, r1
 80021dc:	f883 2300 	strb.w	r2, [r3, #768]	; 0x300
 80021e0:	e00a      	b.n	80021f8 <__NVIC_SetPriority+0x40>
 80021e2:	683b      	ldr	r3, [r7, #0]
 80021e4:	b2da      	uxtb	r2, r3
 80021e6:	4908      	ldr	r1, [pc, #32]	; (8002208 <__NVIC_SetPriority+0x50>)
 80021e8:	79fb      	ldrb	r3, [r7, #7]
 80021ea:	f003 030f 	and.w	r3, r3, #15
 80021ee:	3b04      	subs	r3, #4
 80021f0:	0112      	lsls	r2, r2, #4
 80021f2:	b2d2      	uxtb	r2, r2
 80021f4:	440b      	add	r3, r1
 80021f6:	761a      	strb	r2, [r3, #24]
 80021f8:	bf00      	nop
 80021fa:	370c      	adds	r7, #12
 80021fc:	46bd      	mov	sp, r7
 80021fe:	f85d 7b04 	ldr.w	r7, [sp], #4
 8002202:	4770      	bx	lr
 8002204:	e000e100 	.word	0xe000e100
 8002208:	e000ed00 	.word	0xe000ed00

0800220c <SysTick_Handler>:
 800220c:	b580      	push	{r7, lr}
 800220e:	af00      	add	r7, sp, #0
 8002210:	4b05      	ldr	r3, [pc, #20]	; (8002228 <SysTick_Handler+0x1c>)
 8002212:	681b      	ldr	r3, [r3, #0]
 8002214:	f001 fcae 	bl	8003b74 <xTaskGetSchedulerState>
 8002218:	4603      	mov	r3, r0
 800221a:	2b01      	cmp	r3, #1
 800221c:	d001      	beq.n	8002222 <SysTick_Handler+0x16>
 800221e:	f002 fa93 	bl	8004748 <xPortSysTickHandler>
 8002222:	bf00      	nop
 8002224:	bd80      	pop	{r7, pc}
 8002226:	bf00      	nop
 8002228:	e000e010 	.word	0xe000e010

0800222c <SVC_Setup>:
 800222c:	b580      	push	{r7, lr}
 800222e:	af00      	add	r7, sp, #0
 8002230:	2100      	movs	r1, #0
 8002232:	f06f 0004 	mvn.w	r0, #4
 8002236:	f7ff ffbf 	bl	80021b8 <__NVIC_SetPriority>
 800223a:	bf00      	nop
 800223c:	bd80      	pop	{r7, pc}
	...

08002240 <osKernelInitialize>:
 8002240:	b480      	push	{r7}
 8002242:	b083      	sub	sp, #12
 8002244:	af00      	add	r7, sp, #0
 8002246:	f3ef 8305 	mrs	r3, IPSR
 800224a:	603b      	str	r3, [r7, #0]
 800224c:	683b      	ldr	r3, [r7, #0]
 800224e:	2b00      	cmp	r3, #0
 8002250:	d003      	beq.n	800225a <osKernelInitialize+0x1a>
 8002252:	f06f 0305 	mvn.w	r3, #5
 8002256:	607b      	str	r3, [r7, #4]
 8002258:	e00c      	b.n	8002274 <osKernelInitialize+0x34>
 800225a:	4b0a      	ldr	r3, [pc, #40]	; (8002284 <osKernelInitialize+0x44>)
 800225c:	681b      	ldr	r3, [r3, #0]
 800225e:	2b00      	cmp	r3, #0
 8002260:	d105      	bne.n	800226e <osKernelInitialize+0x2e>
 8002262:	4b08      	ldr	r3, [pc, #32]	; (8002284 <osKernelInitialize+0x44>)
 8002264:	2201      	movs	r2, #1
 8002266:	601a      	str	r2, [r3, #0]
 8002268:	2300      	movs	r3, #0
 800226a:	607b      	str	r3, [r7, #4]
 800226c:	e002      	b.n	8002274 <osKernelInitialize+0x34>
 800226e:	f04f 33ff 	mov.w	r3, #4294967295
 8002272:	607b      	str	r3, [r7, #4]
 8002274:	687b      	ldr	r3, [r7, #4]
 8002276:	4618      	mov	r0, r3
 8002278:	370c      	adds	r7, #12
 800227a:	46bd      	mov	sp, r7
 800227c:	f85d 7b04 	ldr.w	r7, [sp], #4
 8002280:	4770      	bx	lr
 8002282:	bf00      	nop
 8002284:	2000002c 	.word	0x2000002c

08002288 <osKernelStart>:
 8002288:	b580      	push	{r7, lr}
 800228a:	b082      	sub	sp, #8
 800228c:	af00      	add	r7, sp, #0
 800228e:	f3ef 8305 	mrs	r3, IPSR
 8002292:	603b      	str	r3, [r7, #0]
 8002294:	683b      	ldr	r3, [r7, #0]
 8002296:	2b00      	cmp	r3, #0
 8002298:	d003      	beq.n	80022a2 <osKernelStart+0x1a>
 800229a:	f06f 0305 	mvn.w	r3, #5
 800229e:	607b      	str	r3, [r7, #4]
 80022a0:	e010      	b.n	80022c4 <osKernelStart+0x3c>
 80022a2:	4b0b      	ldr	r3, [pc, #44]	; (80022d0 <osKernelStart+0x48>)
 80022a4:	681b      	ldr	r3, [r3, #0]
 80022a6:	2b01      	cmp	r3, #1
 80022a8:	d109      	bne.n	80022be <osKernelStart+0x36>
 80022aa:	f7ff ffbf 	bl	800222c <SVC_Setup>
 80022ae:	4b08      	ldr	r3, [pc, #32]	; (80022d0 <osKernelStart+0x48>)
 80022b0:	2202      	movs	r2, #2
 80022b2:	601a      	str	r2, [r3, #0]
 80022b4:	f001 f816 	bl	80032e4 <vTaskStartScheduler>
 80022b8:	2300      	movs	r3, #0
 80022ba:	607b      	str	r3, [r7, #4]
 80022bc:	e002      	b.n	80022c4 <osKernelStart+0x3c>
 80022be:	f04f 33ff 	mov.w	r3, #4294967295
 80022c2:	607b      	str	r3, [r7, #4]
 80022c4:	687b      	ldr	r3, [r7, #4]
 80022c6:	4618      	mov	r0, r3
 80022c8:	3708      	adds	r7, #8
 80022ca:	46bd      	mov	sp, r7
 80022cc:	bd80      	pop	{r7, pc}
 80022ce:	bf00      	nop
 80022d0:	2000002c 	.word	0x2000002c

080022d4 <osThreadNew>:
 80022d4:	b580      	push	{r7, lr}
 80022d6:	b08e      	sub	sp, #56	; 0x38
 80022d8:	af04      	add	r7, sp, #16
 80022da:	60f8      	str	r0, [r7, #12]
 80022dc:	60b9      	str	r1, [r7, #8]
 80022de:	607a      	str	r2, [r7, #4]
 80022e0:	2300      	movs	r3, #0
 80022e2:	613b      	str	r3, [r7, #16]
 80022e4:	f3ef 8305 	mrs	r3, IPSR
 80022e8:	617b      	str	r3, [r7, #20]
 80022ea:	697b      	ldr	r3, [r7, #20]
 80022ec:	2b00      	cmp	r3, #0
 80022ee:	d17e      	bne.n	80023ee <osThreadNew+0x11a>
 80022f0:	68fb      	ldr	r3, [r7, #12]
 80022f2:	2b00      	cmp	r3, #0
 80022f4:	d07b      	beq.n	80023ee <osThreadNew+0x11a>
 80022f6:	2380      	movs	r3, #128	; 0x80
 80022f8:	623b      	str	r3, [r7, #32]
 80022fa:	2318      	movs	r3, #24
 80022fc:	61fb      	str	r3, [r7, #28]
 80022fe:	2300      	movs	r3, #0
 8002300:	627b      	str	r3, [r7, #36]	; 0x24
 8002302:	f04f 33ff 	mov.w	r3, #4294967295
 8002306:	61bb      	str	r3, [r7, #24]
 8002308:	687b      	ldr	r3, [r7, #4]
 800230a:	2b00      	cmp	r3, #0
 800230c:	d045      	beq.n	800239a <osThreadNew+0xc6>
 800230e:	687b      	ldr	r3, [r7, #4]
 8002310:	681b      	ldr	r3, [r3, #0]
 8002312:	2b00      	cmp	r3, #0
 8002314:	d002      	beq.n	800231c <osThreadNew+0x48>
 8002316:	687b      	ldr	r3, [r7, #4]
 8002318:	681b      	ldr	r3, [r3, #0]
 800231a:	627b      	str	r3, [r7, #36]	; 0x24
 800231c:	687b      	ldr	r3, [r7, #4]
 800231e:	699b      	ldr	r3, [r3, #24]
 8002320:	2b00      	cmp	r3, #0
 8002322:	d002      	beq.n	800232a <osThreadNew+0x56>
 8002324:	687b      	ldr	r3, [r7, #4]
 8002326:	699b      	ldr	r3, [r3, #24]
 8002328:	61fb      	str	r3, [r7, #28]
 800232a:	69fb      	ldr	r3, [r7, #28]
 800232c:	2b00      	cmp	r3, #0
 800232e:	d008      	beq.n	8002342 <osThreadNew+0x6e>
 8002330:	69fb      	ldr	r3, [r7, #28]
 8002332:	2b38      	cmp	r3, #56	; 0x38
 8002334:	d805      	bhi.n	8002342 <osThreadNew+0x6e>
 8002336:	687b      	ldr	r3, [r7, #4]
 8002338:	685b      	ldr	r3, [r3, #4]
 800233a:	f003 0301 	and.w	r3, r3, #1
 800233e:	2b00      	cmp	r3, #0
 8002340:	d001      	beq.n	8002346 <osThreadNew+0x72>
 8002342:	2300      	movs	r3, #0
 8002344:	e054      	b.n	80023f0 <osThreadNew+0x11c>
 8002346:	687b      	ldr	r3, [r7, #4]
 8002348:	695b      	ldr	r3, [r3, #20]
 800234a:	2b00      	cmp	r3, #0
 800234c:	d003      	beq.n	8002356 <osThreadNew+0x82>
 800234e:	687b      	ldr	r3, [r7, #4]
 8002350:	695b      	ldr	r3, [r3, #20]
 8002352:	089b      	lsrs	r3, r3, #2
 8002354:	623b      	str	r3, [r7, #32]
 8002356:	687b      	ldr	r3, [r7, #4]
 8002358:	689b      	ldr	r3, [r3, #8]
 800235a:	2b00      	cmp	r3, #0
 800235c:	d00e      	beq.n	800237c <osThreadNew+0xa8>
 800235e:	687b      	ldr	r3, [r7, #4]
 8002360:	68db      	ldr	r3, [r3, #12]
 8002362:	2b5b      	cmp	r3, #91	; 0x5b
 8002364:	d90a      	bls.n	800237c <osThreadNew+0xa8>
 8002366:	687b      	ldr	r3, [r7, #4]
 8002368:	691b      	ldr	r3, [r3, #16]
 800236a:	2b00      	cmp	r3, #0
 800236c:	d006      	beq.n	800237c <osThreadNew+0xa8>
 800236e:	687b      	ldr	r3, [r7, #4]
 8002370:	695b      	ldr	r3, [r3, #20]
 8002372:	2b00      	cmp	r3, #0
 8002374:	d002      	beq.n	800237c <osThreadNew+0xa8>
 8002376:	2301      	movs	r3, #1
 8002378:	61bb      	str	r3, [r7, #24]
 800237a:	e010      	b.n	800239e <osThreadNew+0xca>
 800237c:	687b      	ldr	r3, [r7, #4]
 800237e:	689b      	ldr	r3, [r3, #8]
 8002380:	2b00      	cmp	r3, #0
 8002382:	d10c      	bne.n	800239e <osThreadNew+0xca>
 8002384:	687b      	ldr	r3, [r7, #4]
 8002386:	68db      	ldr	r3, [r3, #12]
 8002388:	2b00      	cmp	r3, #0
 800238a:	d108      	bne.n	800239e <osThreadNew+0xca>
 800238c:	687b      	ldr	r3, [r7, #4]
 800238e:	691b      	ldr	r3, [r3, #16]
 8002390:	2b00      	cmp	r3, #0
 8002392:	d104      	bne.n	800239e <osThreadNew+0xca>
 8002394:	2300      	movs	r3, #0
 8002396:	61bb      	str	r3, [r7, #24]
 8002398:	e001      	b.n	800239e <osThreadNew+0xca>
 800239a:	2300      	movs	r3, #0
 800239c:	61bb      	str	r3, [r7, #24]
 800239e:	69bb      	ldr	r3, [r7, #24]
 80023a0:	2b01      	cmp	r3, #1
 80023a2:	d110      	bne.n	80023c6 <osThreadNew+0xf2>
 80023a4:	687b      	ldr	r3, [r7, #4]
 80023a6:	691b      	ldr	r3, [r3, #16]
 80023a8:	687a      	ldr	r2, [r7, #4]
 80023aa:	6892      	ldr	r2, [r2, #8]
 80023ac:	9202      	str	r2, [sp, #8]
 80023ae:	9301      	str	r3, [sp, #4]
 80023b0:	69fb      	ldr	r3, [r7, #28]
 80023b2:	9300      	str	r3, [sp, #0]
 80023b4:	68bb      	ldr	r3, [r7, #8]
 80023b6:	6a3a      	ldr	r2, [r7, #32]
 80023b8:	6a79      	ldr	r1, [r7, #36]	; 0x24
 80023ba:	68f8      	ldr	r0, [r7, #12]
 80023bc:	f000 fdf0 	bl	8002fa0 <xTaskCreateStatic>
 80023c0:	4603      	mov	r3, r0
 80023c2:	613b      	str	r3, [r7, #16]
 80023c4:	e013      	b.n	80023ee <osThreadNew+0x11a>
 80023c6:	69bb      	ldr	r3, [r7, #24]
 80023c8:	2b00      	cmp	r3, #0
 80023ca:	d110      	bne.n	80023ee <osThreadNew+0x11a>
 80023cc:	6a3b      	ldr	r3, [r7, #32]
 80023ce:	b29a      	uxth	r2, r3
 80023d0:	f107 0310 	add.w	r3, r7, #16
 80023d4:	9301      	str	r3, [sp, #4]
 80023d6:	69fb      	ldr	r3, [r7, #28]
 80023d8:	9300      	str	r3, [sp, #0]
 80023da:	68bb      	ldr	r3, [r7, #8]
 80023dc:	6a79      	ldr	r1, [r7, #36]	; 0x24
 80023de:	68f8      	ldr	r0, [r7, #12]
 80023e0:	f000 fe3b 	bl	800305a <xTaskCreate>
 80023e4:	4603      	mov	r3, r0
 80023e6:	2b01      	cmp	r3, #1
 80023e8:	d001      	beq.n	80023ee <osThreadNew+0x11a>
 80023ea:	2300      	movs	r3, #0
 80023ec:	613b      	str	r3, [r7, #16]
 80023ee:	693b      	ldr	r3, [r7, #16]
 80023f0:	4618      	mov	r0, r3
 80023f2:	3728      	adds	r7, #40	; 0x28
 80023f4:	46bd      	mov	sp, r7
 80023f6:	bd80      	pop	{r7, pc}

080023f8 <vApplicationGetIdleTaskMemory>:
 80023f8:	b480      	push	{r7}
 80023fa:	b085      	sub	sp, #20
 80023fc:	af00      	add	r7, sp, #0
 80023fe:	60f8      	str	r0, [r7, #12]
 8002400:	60b9      	str	r1, [r7, #8]
 8002402:	607a      	str	r2, [r7, #4]
 8002404:	68fb      	ldr	r3, [r7, #12]
 8002406:	4a07      	ldr	r2, [pc, #28]	; (8002424 <vApplicationGetIdleTaskMemory+0x2c>)
 8002408:	601a      	str	r2, [r3, #0]
 800240a:	68bb      	ldr	r3, [r7, #8]
 800240c:	4a06      	ldr	r2, [pc, #24]	; (8002428 <vApplicationGetIdleTaskMemory+0x30>)
 800240e:	601a      	str	r2, [r3, #0]
 8002410:	687b      	ldr	r3, [r7, #4]
 8002412:	2280      	movs	r2, #128	; 0x80
 8002414:	601a      	str	r2, [r3, #0]
 8002416:	bf00      	nop
 8002418:	3714      	adds	r7, #20
 800241a:	46bd      	mov	sp, r7
 800241c:	f85d 7b04 	ldr.w	r7, [sp], #4
 8002420:	4770      	bx	lr
 8002422:	bf00      	nop
 8002424:	20000030 	.word	0x20000030
 8002428:	2000008c 	.word	0x2000008c

0800242c <vApplicationGetTimerTaskMemory>:
 800242c:	b480      	push	{r7}
 800242e:	b085      	sub	sp, #20
 8002430:	af00      	add	r7, sp, #0
 8002432:	60f8      	str	r0, [r7, #12]
 8002434:	60b9      	str	r1, [r7, #8]
 8002436:	607a      	str	r2, [r7, #4]
 8002438:	68fb      	ldr	r3, [r7, #12]
 800243a:	4a07      	ldr	r2, [pc, #28]	; (8002458 <vApplicationGetTimerTaskMemory+0x2c>)
 800243c:	601a      	str	r2, [r3, #0]
 800243e:	68bb      	ldr	r3, [r7, #8]
 8002440:	4a06      	ldr	r2, [pc, #24]	; (800245c <vApplicationGetTimerTaskMemory+0x30>)
 8002442:	601a      	str	r2, [r3, #0]
 8002444:	687b      	ldr	r3, [r7, #4]
 8002446:	f44f 7280 	mov.w	r2, #256	; 0x100
 800244a:	601a      	str	r2, [r3, #0]
 800244c:	bf00      	nop
 800244e:	3714      	adds	r7, #20
 8002450:	46bd      	mov	sp, r7
 8002452:	f85d 7b04 	ldr.w	r7, [sp], #4
 8002456:	4770      	bx	lr
 8002458:	2000028c 	.word	0x2000028c
 800245c:	200002e8 	.word	0x200002e8

08002460 <vListInitialise>:
 8002460:	b480      	push	{r7}
 8002462:	b083      	sub	sp, #12
 8002464:	af00      	add	r7, sp, #0
 8002466:	6078      	str	r0, [r7, #4]
 8002468:	687b      	ldr	r3, [r7, #4]
 800246a:	f103 0208 	add.w	r2, r3, #8
 800246e:	687b      	ldr	r3, [r7, #4]
 8002470:	605a      	str	r2, [r3, #4]
 8002472:	687b      	ldr	r3, [r7, #4]
 8002474:	f04f 32ff 	mov.w	r2, #4294967295
 8002478:	609a      	str	r2, [r3, #8]
 800247a:	687b      	ldr	r3, [r7, #4]
 800247c:	f103 0208 	add.w	r2, r3, #8
 8002480:	687b      	ldr	r3, [r7, #4]
 8002482:	60da      	str	r2, [r3, #12]
 8002484:	687b      	ldr	r3, [r7, #4]
 8002486:	f103 0208 	add.w	r2, r3, #8
 800248a:	687b      	ldr	r3, [r7, #4]
 800248c:	611a      	str	r2, [r3, #16]
 800248e:	687b      	ldr	r3, [r7, #4]
 8002490:	2200      	movs	r2, #0
 8002492:	601a      	str	r2, [r3, #0]
 8002494:	bf00      	nop
 8002496:	370c      	adds	r7, #12
 8002498:	46bd      	mov	sp, r7
 800249a:	f85d 7b04 	ldr.w	r7, [sp], #4
 800249e:	4770      	bx	lr

080024a0 <vListInitialiseItem>:
 80024a0:	b480      	push	{r7}
 80024a2:	b083      	sub	sp, #12
 80024a4:	af00      	add	r7, sp, #0
 80024a6:	6078      	str	r0, [r7, #4]
 80024a8:	687b      	ldr	r3, [r7, #4]
 80024aa:	2200      	movs	r2, #0
 80024ac:	611a      	str	r2, [r3, #16]
 80024ae:	bf00      	nop
 80024b0:	370c      	adds	r7, #12
 80024b2:	46bd      	mov	sp, r7
 80024b4:	f85d 7b04 	ldr.w	r7, [sp], #4
 80024b8:	4770      	bx	lr

080024ba <vListInsertEnd>:
 80024ba:	b480      	push	{r7}
 80024bc:	b085      	sub	sp, #20
 80024be:	af00      	add	r7, sp, #0
 80024c0:	6078      	str	r0, [r7, #4]
 80024c2:	6039      	str	r1, [r7, #0]
 80024c4:	687b      	ldr	r3, [r7, #4]
 80024c6:	685b      	ldr	r3, [r3, #4]
 80024c8:	60fb      	str	r3, [r7, #12]
 80024ca:	683b      	ldr	r3, [r7, #0]
 80024cc:	68fa      	ldr	r2, [r7, #12]
 80024ce:	605a      	str	r2, [r3, #4]
 80024d0:	68fb      	ldr	r3, [r7, #12]
 80024d2:	689a      	ldr	r2, [r3, #8]
 80024d4:	683b      	ldr	r3, [r7, #0]
 80024d6:	609a      	str	r2, [r3, #8]
 80024d8:	68fb      	ldr	r3, [r7, #12]
 80024da:	689b      	ldr	r3, [r3, #8]
 80024dc:	683a      	ldr	r2, [r7, #0]
 80024de:	605a      	str	r2, [r3, #4]
 80024e0:	68fb      	ldr	r3, [r7, #12]
 80024e2:	683a      	ldr	r2, [r7, #0]
 80024e4:	609a      	str	r2, [r3, #8]
 80024e6:	683b      	ldr	r3, [r7, #0]
 80024e8:	687a      	ldr	r2, [r7, #4]
 80024ea:	611a      	str	r2, [r3, #16]
 80024ec:	687b      	ldr	r3, [r7, #4]
 80024ee:	681b      	ldr	r3, [r3, #0]
 80024f0:	1c5a      	adds	r2, r3, #1
 80024f2:	687b      	ldr	r3, [r7, #4]
 80024f4:	601a      	str	r2, [r3, #0]
 80024f6:	bf00      	nop
 80024f8:	3714      	adds	r7, #20
 80024fa:	46bd      	mov	sp, r7
 80024fc:	f85d 7b04 	ldr.w	r7, [sp], #4
 8002500:	4770      	bx	lr

08002502 <vListInsert>:
 8002502:	b480      	push	{r7}
 8002504:	b085      	sub	sp, #20
 8002506:	af00      	add	r7, sp, #0
 8002508:	6078      	str	r0, [r7, #4]
 800250a:	6039      	str	r1, [r7, #0]
 800250c:	683b      	ldr	r3, [r7, #0]
 800250e:	681b      	ldr	r3, [r3, #0]
 8002510:	60bb      	str	r3, [r7, #8]
 8002512:	68bb      	ldr	r3, [r7, #8]
 8002514:	f1b3 3fff 	cmp.w	r3, #4294967295
 8002518:	d103      	bne.n	8002522 <vListInsert+0x20>
 800251a:	687b      	ldr	r3, [r7, #4]
 800251c:	691b      	ldr	r3, [r3, #16]
 800251e:	60fb      	str	r3, [r7, #12]
 8002520:	e00c      	b.n	800253c <vListInsert+0x3a>
 8002522:	687b      	ldr	r3, [r7, #4]
 8002524:	3308      	adds	r3, #8
 8002526:	60fb      	str	r3, [r7, #12]
 8002528:	e002      	b.n	8002530 <vListInsert+0x2e>
 800252a:	68fb      	ldr	r3, [r7, #12]
 800252c:	685b      	ldr	r3, [r3, #4]
 800252e:	60fb      	str	r3, [r7, #12]
 8002530:	68fb      	ldr	r3, [r7, #12]
 8002532:	685b      	ldr	r3, [r3, #4]
 8002534:	681b      	ldr	r3, [r3, #0]
 8002536:	68ba      	ldr	r2, [r7, #8]
 8002538:	429a      	cmp	r2, r3
 800253a:	d2f6      	bcs.n	800252a <vListInsert+0x28>
 800253c:	68fb      	ldr	r3, [r7, #12]
 800253e:	685a      	ldr	r2, [r3, #4]
 8002540:	683b      	ldr	r3, [r7, #0]
 8002542:	605a      	str	r2, [r3, #4]
 8002544:	683b      	ldr	r3, [r7, #0]
 8002546:	685b      	ldr	r3, [r3, #4]
 8002548:	683a      	ldr	r2, [r7, #0]
 800254a:	609a      	str	r2, [r3, #8]
 800254c:	683b      	ldr	r3, [r7, #0]
 800254e:	68fa      	ldr	r2, [r7, #12]
 8002550:	609a      	str	r2, [r3, #8]
 8002552:	68fb      	ldr	r3, [r7, #12]
 8002554:	683a      	ldr	r2, [r7, #0]
 8002556:	605a      	str	r2, [r3, #4]
 8002558:	683b      	ldr	r3, [r7, #0]
 800255a:	687a      	ldr	r2, [r7, #4]
 800255c:	611a      	str	r2, [r3, #16]
 800255e:	687b      	ldr	r3, [r7, #4]
 8002560:	681b      	ldr	r3, [r3, #0]
 8002562:	1c5a      	adds	r2, r3, #1
 8002564:	687b      	ldr	r3, [r7, #4]
 8002566:	601a      	str	r2, [r3, #0]
 8002568:	bf00      	nop
 800256a:	3714      	adds	r7, #20
 800256c:	46bd      	mov	sp, r7
 800256e:	f85d 7b04 	ldr.w	r7, [sp], #4
 8002572:	4770      	bx	lr

08002574 <uxListRemove>:
 8002574:	b480      	push	{r7}
 8002576:	b085      	sub	sp, #20
 8002578:	af00      	add	r7, sp, #0
 800257a:	6078      	str	r0, [r7, #4]
 800257c:	687b      	ldr	r3, [r7, #4]
 800257e:	691b      	ldr	r3, [r3, #16]
 8002580:	60fb      	str	r3, [r7, #12]
 8002582:	687b      	ldr	r3, [r7, #4]
 8002584:	685b      	ldr	r3, [r3, #4]
 8002586:	687a      	ldr	r2, [r7, #4]
 8002588:	6892      	ldr	r2, [r2, #8]
 800258a:	609a      	str	r2, [r3, #8]
 800258c:	687b      	ldr	r3, [r7, #4]
 800258e:	689b      	ldr	r3, [r3, #8]
 8002590:	687a      	ldr	r2, [r7, #4]
 8002592:	6852      	ldr	r2, [r2, #4]
 8002594:	605a      	str	r2, [r3, #4]
 8002596:	68fb      	ldr	r3, [r7, #12]
 8002598:	685b      	ldr	r3, [r3, #4]
 800259a:	687a      	ldr	r2, [r7, #4]
 800259c:	429a      	cmp	r2, r3
 800259e:	d103      	bne.n	80025a8 <uxListRemove+0x34>
 80025a0:	687b      	ldr	r3, [r7, #4]
 80025a2:	689a      	ldr	r2, [r3, #8]
 80025a4:	68fb      	ldr	r3, [r7, #12]
 80025a6:	605a      	str	r2, [r3, #4]
 80025a8:	687b      	ldr	r3, [r7, #4]
 80025aa:	2200      	movs	r2, #0
 80025ac:	611a      	str	r2, [r3, #16]
 80025ae:	68fb      	ldr	r3, [r7, #12]
 80025b0:	681b      	ldr	r3, [r3, #0]
 80025b2:	1e5a      	subs	r2, r3, #1
 80025b4:	68fb      	ldr	r3, [r7, #12]
 80025b6:	601a      	str	r2, [r3, #0]
 80025b8:	68fb      	ldr	r3, [r7, #12]
 80025ba:	681b      	ldr	r3, [r3, #0]
 80025bc:	4618      	mov	r0, r3
 80025be:	3714      	adds	r7, #20
 80025c0:	46bd      	mov	sp, r7
 80025c2:	f85d 7b04 	ldr.w	r7, [sp], #4
 80025c6:	4770      	bx	lr

080025c8 <xQueueGenericReset>:
 80025c8:	b580      	push	{r7, lr}
 80025ca:	b084      	sub	sp, #16
 80025cc:	af00      	add	r7, sp, #0
 80025ce:	6078      	str	r0, [r7, #4]
 80025d0:	6039      	str	r1, [r7, #0]
 80025d2:	687b      	ldr	r3, [r7, #4]
 80025d4:	60fb      	str	r3, [r7, #12]
 80025d6:	68fb      	ldr	r3, [r7, #12]
 80025d8:	2b00      	cmp	r3, #0
 80025da:	d10a      	bne.n	80025f2 <xQueueGenericReset+0x2a>
 80025dc:	f04f 0350 	mov.w	r3, #80	; 0x50
 80025e0:	f383 8811 	msr	BASEPRI, r3
 80025e4:	f3bf 8f6f 	isb	sy
 80025e8:	f3bf 8f4f 	dsb	sy
 80025ec:	60bb      	str	r3, [r7, #8]
 80025ee:	bf00      	nop
 80025f0:	e7fe      	b.n	80025f0 <xQueueGenericReset+0x28>
 80025f2:	f002 f817 	bl	8004624 <vPortEnterCritical>
 80025f6:	68fb      	ldr	r3, [r7, #12]
 80025f8:	681a      	ldr	r2, [r3, #0]
 80025fa:	68fb      	ldr	r3, [r7, #12]
 80025fc:	6bdb      	ldr	r3, [r3, #60]	; 0x3c
 80025fe:	68f9      	ldr	r1, [r7, #12]
 8002600:	6c09      	ldr	r1, [r1, #64]	; 0x40
 8002602:	fb01 f303 	mul.w	r3, r1, r3
 8002606:	441a      	add	r2, r3
 8002608:	68fb      	ldr	r3, [r7, #12]
 800260a:	609a      	str	r2, [r3, #8]
 800260c:	68fb      	ldr	r3, [r7, #12]
 800260e:	2200      	movs	r2, #0
 8002610:	639a      	str	r2, [r3, #56]	; 0x38
 8002612:	68fb      	ldr	r3, [r7, #12]
 8002614:	681a      	ldr	r2, [r3, #0]
 8002616:	68fb      	ldr	r3, [r7, #12]
 8002618:	605a      	str	r2, [r3, #4]
 800261a:	68fb      	ldr	r3, [r7, #12]
 800261c:	681a      	ldr	r2, [r3, #0]
 800261e:	68fb      	ldr	r3, [r7, #12]
 8002620:	6bdb      	ldr	r3, [r3, #60]	; 0x3c
 8002622:	3b01      	subs	r3, #1
 8002624:	68f9      	ldr	r1, [r7, #12]
 8002626:	6c09      	ldr	r1, [r1, #64]	; 0x40
 8002628:	fb01 f303 	mul.w	r3, r1, r3
 800262c:	441a      	add	r2, r3
 800262e:	68fb      	ldr	r3, [r7, #12]
 8002630:	60da      	str	r2, [r3, #12]
 8002632:	68fb      	ldr	r3, [r7, #12]
 8002634:	22ff      	movs	r2, #255	; 0xff
 8002636:	f883 2044 	strb.w	r2, [r3, #68]	; 0x44
 800263a:	68fb      	ldr	r3, [r7, #12]
 800263c:	22ff      	movs	r2, #255	; 0xff
 800263e:	f883 2045 	strb.w	r2, [r3, #69]	; 0x45
 8002642:	683b      	ldr	r3, [r7, #0]
 8002644:	2b00      	cmp	r3, #0
 8002646:	d114      	bne.n	8002672 <xQueueGenericReset+0xaa>
 8002648:	68fb      	ldr	r3, [r7, #12]
 800264a:	691b      	ldr	r3, [r3, #16]
 800264c:	2b00      	cmp	r3, #0
 800264e:	d01a      	beq.n	8002686 <xQueueGenericReset+0xbe>
 8002650:	68fb      	ldr	r3, [r7, #12]
 8002652:	3310      	adds	r3, #16
 8002654:	4618      	mov	r0, r3
 8002656:	f001 f8cf 	bl	80037f8 <xTaskRemoveFromEventList>
 800265a:	4603      	mov	r3, r0
 800265c:	2b00      	cmp	r3, #0
 800265e:	d012      	beq.n	8002686 <xQueueGenericReset+0xbe>
 8002660:	4b0c      	ldr	r3, [pc, #48]	; (8002694 <xQueueGenericReset+0xcc>)
 8002662:	f04f 5280 	mov.w	r2, #268435456	; 0x10000000
 8002666:	601a      	str	r2, [r3, #0]
 8002668:	f3bf 8f4f 	dsb	sy
 800266c:	f3bf 8f6f 	isb	sy
 8002670:	e009      	b.n	8002686 <xQueueGenericReset+0xbe>
 8002672:	68fb      	ldr	r3, [r7, #12]
 8002674:	3310      	adds	r3, #16
 8002676:	4618      	mov	r0, r3
 8002678:	f7ff fef2 	bl	8002460 <vListInitialise>
 800267c:	68fb      	ldr	r3, [r7, #12]
 800267e:	3324      	adds	r3, #36	; 0x24
 8002680:	4618      	mov	r0, r3
 8002682:	f7ff feed 	bl	8002460 <vListInitialise>
 8002686:	f001 fffd 	bl	8004684 <vPortExitCritical>
 800268a:	2301      	movs	r3, #1
 800268c:	4618      	mov	r0, r3
 800268e:	3710      	adds	r7, #16
 8002690:	46bd      	mov	sp, r7
 8002692:	bd80      	pop	{r7, pc}
 8002694:	e000ed04 	.word	0xe000ed04

08002698 <xQueueGenericCreateStatic>:
 8002698:	b580      	push	{r7, lr}
 800269a:	b08e      	sub	sp, #56	; 0x38
 800269c:	af02      	add	r7, sp, #8
 800269e:	60f8      	str	r0, [r7, #12]
 80026a0:	60b9      	str	r1, [r7, #8]
 80026a2:	607a      	str	r2, [r7, #4]
 80026a4:	603b      	str	r3, [r7, #0]
 80026a6:	68fb      	ldr	r3, [r7, #12]
 80026a8:	2b00      	cmp	r3, #0
 80026aa:	d10a      	bne.n	80026c2 <xQueueGenericCreateStatic+0x2a>
 80026ac:	f04f 0350 	mov.w	r3, #80	; 0x50
 80026b0:	f383 8811 	msr	BASEPRI, r3
 80026b4:	f3bf 8f6f 	isb	sy
 80026b8:	f3bf 8f4f 	dsb	sy
 80026bc:	62bb      	str	r3, [r7, #40]	; 0x28
 80026be:	bf00      	nop
 80026c0:	e7fe      	b.n	80026c0 <xQueueGenericCreateStatic+0x28>
 80026c2:	683b      	ldr	r3, [r7, #0]
 80026c4:	2b00      	cmp	r3, #0
 80026c6:	d10a      	bne.n	80026de <xQueueGenericCreateStatic+0x46>
 80026c8:	f04f 0350 	mov.w	r3, #80	; 0x50
 80026cc:	f383 8811 	msr	BASEPRI, r3
 80026d0:	f3bf 8f6f 	isb	sy
 80026d4:	f3bf 8f4f 	dsb	sy
 80026d8:	627b      	str	r3, [r7, #36]	; 0x24
 80026da:	bf00      	nop
 80026dc:	e7fe      	b.n	80026dc <xQueueGenericCreateStatic+0x44>
 80026de:	687b      	ldr	r3, [r7, #4]
 80026e0:	2b00      	cmp	r3, #0
 80026e2:	d002      	beq.n	80026ea <xQueueGenericCreateStatic+0x52>
 80026e4:	68bb      	ldr	r3, [r7, #8]
 80026e6:	2b00      	cmp	r3, #0
 80026e8:	d001      	beq.n	80026ee <xQueueGenericCreateStatic+0x56>
 80026ea:	2301      	movs	r3, #1
 80026ec:	e000      	b.n	80026f0 <xQueueGenericCreateStatic+0x58>
 80026ee:	2300      	movs	r3, #0
 80026f0:	2b00      	cmp	r3, #0
 80026f2:	d10a      	bne.n	800270a <xQueueGenericCreateStatic+0x72>
 80026f4:	f04f 0350 	mov.w	r3, #80	; 0x50
 80026f8:	f383 8811 	msr	BASEPRI, r3
 80026fc:	f3bf 8f6f 	isb	sy
 8002700:	f3bf 8f4f 	dsb	sy
 8002704:	623b      	str	r3, [r7, #32]
 8002706:	bf00      	nop
 8002708:	e7fe      	b.n	8002708 <xQueueGenericCreateStatic+0x70>
 800270a:	687b      	ldr	r3, [r7, #4]
 800270c:	2b00      	cmp	r3, #0
 800270e:	d102      	bne.n	8002716 <xQueueGenericCreateStatic+0x7e>
 8002710:	68bb      	ldr	r3, [r7, #8]
 8002712:	2b00      	cmp	r3, #0
 8002714:	d101      	bne.n	800271a <xQueueGenericCreateStatic+0x82>
 8002716:	2301      	movs	r3, #1
 8002718:	e000      	b.n	800271c <xQueueGenericCreateStatic+0x84>
 800271a:	2300      	movs	r3, #0
 800271c:	2b00      	cmp	r3, #0
 800271e:	d10a      	bne.n	8002736 <xQueueGenericCreateStatic+0x9e>
 8002720:	f04f 0350 	mov.w	r3, #80	; 0x50
 8002724:	f383 8811 	msr	BASEPRI, r3
 8002728:	f3bf 8f6f 	isb	sy
 800272c:	f3bf 8f4f 	dsb	sy
 8002730:	61fb      	str	r3, [r7, #28]
 8002732:	bf00      	nop
 8002734:	e7fe      	b.n	8002734 <xQueueGenericCreateStatic+0x9c>
 8002736:	2350      	movs	r3, #80	; 0x50
 8002738:	617b      	str	r3, [r7, #20]
 800273a:	697b      	ldr	r3, [r7, #20]
 800273c:	2b50      	cmp	r3, #80	; 0x50
 800273e:	d00a      	beq.n	8002756 <xQueueGenericCreateStatic+0xbe>
 8002740:	f04f 0350 	mov.w	r3, #80	; 0x50
 8002744:	f383 8811 	msr	BASEPRI, r3
 8002748:	f3bf 8f6f 	isb	sy
 800274c:	f3bf 8f4f 	dsb	sy
 8002750:	61bb      	str	r3, [r7, #24]
 8002752:	bf00      	nop
 8002754:	e7fe      	b.n	8002754 <xQueueGenericCreateStatic+0xbc>
 8002756:	697b      	ldr	r3, [r7, #20]
 8002758:	683b      	ldr	r3, [r7, #0]
 800275a:	62fb      	str	r3, [r7, #44]	; 0x2c
 800275c:	6afb      	ldr	r3, [r7, #44]	; 0x2c
 800275e:	2b00      	cmp	r3, #0
 8002760:	d00d      	beq.n	800277e <xQueueGenericCreateStatic+0xe6>
 8002762:	6afb      	ldr	r3, [r7, #44]	; 0x2c
 8002764:	2201      	movs	r2, #1
 8002766:	f883 2046 	strb.w	r2, [r3, #70]	; 0x46
 800276a:	f897 2038 	ldrb.w	r2, [r7, #56]	; 0x38
 800276e:	6afb      	ldr	r3, [r7, #44]	; 0x2c
 8002770:	9300      	str	r3, [sp, #0]
 8002772:	4613      	mov	r3, r2
 8002774:	687a      	ldr	r2, [r7, #4]
 8002776:	68b9      	ldr	r1, [r7, #8]
 8002778:	68f8      	ldr	r0, [r7, #12]
 800277a:	f000 f805 	bl	8002788 <prvInitialiseNewQueue>
 800277e:	6afb      	ldr	r3, [r7, #44]	; 0x2c
 8002780:	4618      	mov	r0, r3
 8002782:	3730      	adds	r7, #48	; 0x30
 8002784:	46bd      	mov	sp, r7
 8002786:	bd80      	pop	{r7, pc}

08002788 <prvInitialiseNewQueue>:
 8002788:	b580      	push	{r7, lr}
 800278a:	b084      	sub	sp, #16
 800278c:	af00      	add	r7, sp, #0
 800278e:	60f8      	str	r0, [r7, #12]
 8002790:	60b9      	str	r1, [r7, #8]
 8002792:	607a      	str	r2, [r7, #4]
 8002794:	70fb      	strb	r3, [r7, #3]
 8002796:	68bb      	ldr	r3, [r7, #8]
 8002798:	2b00      	cmp	r3, #0
 800279a:	d103      	bne.n	80027a4 <prvInitialiseNewQueue+0x1c>
 800279c:	69bb      	ldr	r3, [r7, #24]
 800279e:	69ba      	ldr	r2, [r7, #24]
 80027a0:	601a      	str	r2, [r3, #0]
 80027a2:	e002      	b.n	80027aa <prvInitialiseNewQueue+0x22>
 80027a4:	69bb      	ldr	r3, [r7, #24]
 80027a6:	687a      	ldr	r2, [r7, #4]
 80027a8:	601a      	str	r2, [r3, #0]
 80027aa:	69bb      	ldr	r3, [r7, #24]
 80027ac:	68fa      	ldr	r2, [r7, #12]
 80027ae:	63da      	str	r2, [r3, #60]	; 0x3c
 80027b0:	69bb      	ldr	r3, [r7, #24]
 80027b2:	68ba      	ldr	r2, [r7, #8]
 80027b4:	641a      	str	r2, [r3, #64]	; 0x40
 80027b6:	2101      	movs	r1, #1
 80027b8:	69b8      	ldr	r0, [r7, #24]
 80027ba:	f7ff ff05 	bl	80025c8 <xQueueGenericReset>
 80027be:	69bb      	ldr	r3, [r7, #24]
 80027c0:	78fa      	ldrb	r2, [r7, #3]
 80027c2:	f883 204c 	strb.w	r2, [r3, #76]	; 0x4c
 80027c6:	bf00      	nop
 80027c8:	3710      	adds	r7, #16
 80027ca:	46bd      	mov	sp, r7
 80027cc:	bd80      	pop	{r7, pc}
	...

080027d0 <xQueueGenericSend>:
 80027d0:	b580      	push	{r7, lr}
 80027d2:	b08e      	sub	sp, #56	; 0x38
 80027d4:	af00      	add	r7, sp, #0
 80027d6:	60f8      	str	r0, [r7, #12]
 80027d8:	60b9      	str	r1, [r7, #8]
 80027da:	607a      	str	r2, [r7, #4]
 80027dc:	603b      	str	r3, [r7, #0]
 80027de:	2300      	movs	r3, #0
 80027e0:	637b      	str	r3, [r7, #52]	; 0x34
 80027e2:	68fb      	ldr	r3, [r7, #12]
 80027e4:	633b      	str	r3, [r7, #48]	; 0x30
 80027e6:	6b3b      	ldr	r3, [r7, #48]	; 0x30
 80027e8:	2b00      	cmp	r3, #0
 80027ea:	d10a      	bne.n	8002802 <xQueueGenericSend+0x32>
 80027ec:	f04f 0350 	mov.w	r3, #80	; 0x50
 80027f0:	f383 8811 	msr	BASEPRI, r3
 80027f4:	f3bf 8f6f 	isb	sy
 80027f8:	f3bf 8f4f 	dsb	sy
 80027fc:	62bb      	str	r3, [r7, #40]	; 0x28
 80027fe:	bf00      	nop
 8002800:	e7fe      	b.n	8002800 <xQueueGenericSend+0x30>
 8002802:	68bb      	ldr	r3, [r7, #8]
 8002804:	2b00      	cmp	r3, #0
 8002806:	d103      	bne.n	8002810 <xQueueGenericSend+0x40>
 8002808:	6b3b      	ldr	r3, [r7, #48]	; 0x30
 800280a:	6c1b      	ldr	r3, [r3, #64]	; 0x40
 800280c:	2b00      	cmp	r3, #0
 800280e:	d101      	bne.n	8002814 <xQueueGenericSend+0x44>
 8002810:	2301      	movs	r3, #1
 8002812:	e000      	b.n	8002816 <xQueueGenericSend+0x46>
 8002814:	2300      	movs	r3, #0
 8002816:	2b00      	cmp	r3, #0
 8002818:	d10a      	bne.n	8002830 <xQueueGenericSend+0x60>
 800281a:	f04f 0350 	mov.w	r3, #80	; 0x50
 800281e:	f383 8811 	msr	BASEPRI, r3
 8002822:	f3bf 8f6f 	isb	sy
 8002826:	f3bf 8f4f 	dsb	sy
 800282a:	627b      	str	r3, [r7, #36]	; 0x24
 800282c:	bf00      	nop
 800282e:	e7fe      	b.n	800282e <xQueueGenericSend+0x5e>
 8002830:	683b      	ldr	r3, [r7, #0]
 8002832:	2b02      	cmp	r3, #2
 8002834:	d103      	bne.n	800283e <xQueueGenericSend+0x6e>
 8002836:	6b3b      	ldr	r3, [r7, #48]	; 0x30
 8002838:	6bdb      	ldr	r3, [r3, #60]	; 0x3c
 800283a:	2b01      	cmp	r3, #1
 800283c:	d101      	bne.n	8002842 <xQueueGenericSend+0x72>
 800283e:	2301      	movs	r3, #1
 8002840:	e000      	b.n	8002844 <xQueueGenericSend+0x74>
 8002842:	2300      	movs	r3, #0
 8002844:	2b00      	cmp	r3, #0
 8002846:	d10a      	bne.n	800285e <xQueueGenericSend+0x8e>
 8002848:	f04f 0350 	mov.w	r3, #80	; 0x50
 800284c:	f383 8811 	msr	BASEPRI, r3
 8002850:	f3bf 8f6f 	isb	sy
 8002854:	f3bf 8f4f 	dsb	sy
 8002858:	623b      	str	r3, [r7, #32]
 800285a:	bf00      	nop
 800285c:	e7fe      	b.n	800285c <xQueueGenericSend+0x8c>
 800285e:	f001 f989 	bl	8003b74 <xTaskGetSchedulerState>
 8002862:	4603      	mov	r3, r0
 8002864:	2b00      	cmp	r3, #0
 8002866:	d102      	bne.n	800286e <xQueueGenericSend+0x9e>
 8002868:	687b      	ldr	r3, [r7, #4]
 800286a:	2b00      	cmp	r3, #0
 800286c:	d101      	bne.n	8002872 <xQueueGenericSend+0xa2>
 800286e:	2301      	movs	r3, #1
 8002870:	e000      	b.n	8002874 <xQueueGenericSend+0xa4>
 8002872:	2300      	movs	r3, #0
 8002874:	2b00      	cmp	r3, #0
 8002876:	d10a      	bne.n	800288e <xQueueGenericSend+0xbe>
 8002878:	f04f 0350 	mov.w	r3, #80	; 0x50
 800287c:	f383 8811 	msr	BASEPRI, r3
 8002880:	f3bf 8f6f 	isb	sy
 8002884:	f3bf 8f4f 	dsb	sy
 8002888:	61fb      	str	r3, [r7, #28]
 800288a:	bf00      	nop
 800288c:	e7fe      	b.n	800288c <xQueueGenericSend+0xbc>
 800288e:	f001 fec9 	bl	8004624 <vPortEnterCritical>
 8002892:	6b3b      	ldr	r3, [r7, #48]	; 0x30
 8002894:	6b9a      	ldr	r2, [r3, #56]	; 0x38
 8002896:	6b3b      	ldr	r3, [r7, #48]	; 0x30
 8002898:	6bdb      	ldr	r3, [r3, #60]	; 0x3c
 800289a:	429a      	cmp	r2, r3
 800289c:	d302      	bcc.n	80028a4 <xQueueGenericSend+0xd4>
 800289e:	683b      	ldr	r3, [r7, #0]
 80028a0:	2b02      	cmp	r3, #2
 80028a2:	d129      	bne.n	80028f8 <xQueueGenericSend+0x128>
 80028a4:	683a      	ldr	r2, [r7, #0]
 80028a6:	68b9      	ldr	r1, [r7, #8]
 80028a8:	6b38      	ldr	r0, [r7, #48]	; 0x30
 80028aa:	f000 fa0b 	bl	8002cc4 <prvCopyDataToQueue>
 80028ae:	62f8      	str	r0, [r7, #44]	; 0x2c
 80028b0:	6b3b      	ldr	r3, [r7, #48]	; 0x30
 80028b2:	6a5b      	ldr	r3, [r3, #36]	; 0x24
 80028b4:	2b00      	cmp	r3, #0
 80028b6:	d010      	beq.n	80028da <xQueueGenericSend+0x10a>
 80028b8:	6b3b      	ldr	r3, [r7, #48]	; 0x30
 80028ba:	3324      	adds	r3, #36	; 0x24
 80028bc:	4618      	mov	r0, r3
 80028be:	f000 ff9b 	bl	80037f8 <xTaskRemoveFromEventList>
 80028c2:	4603      	mov	r3, r0
 80028c4:	2b00      	cmp	r3, #0
 80028c6:	d013      	beq.n	80028f0 <xQueueGenericSend+0x120>
 80028c8:	4b3f      	ldr	r3, [pc, #252]	; (80029c8 <xQueueGenericSend+0x1f8>)
 80028ca:	f04f 5280 	mov.w	r2, #268435456	; 0x10000000
 80028ce:	601a      	str	r2, [r3, #0]
 80028d0:	f3bf 8f4f 	dsb	sy
 80028d4:	f3bf 8f6f 	isb	sy
 80028d8:	e00a      	b.n	80028f0 <xQueueGenericSend+0x120>
 80028da:	6afb      	ldr	r3, [r7, #44]	; 0x2c
 80028dc:	2b00      	cmp	r3, #0
 80028de:	d007      	beq.n	80028f0 <xQueueGenericSend+0x120>
 80028e0:	4b39      	ldr	r3, [pc, #228]	; (80029c8 <xQueueGenericSend+0x1f8>)
 80028e2:	f04f 5280 	mov.w	r2, #268435456	; 0x10000000
 80028e6:	601a      	str	r2, [r3, #0]
 80028e8:	f3bf 8f4f 	dsb	sy
 80028ec:	f3bf 8f6f 	isb	sy
 80028f0:	f001 fec8 	bl	8004684 <vPortExitCritical>
 80028f4:	2301      	movs	r3, #1
 80028f6:	e063      	b.n	80029c0 <xQueueGenericSend+0x1f0>
 80028f8:	687b      	ldr	r3, [r7, #4]
 80028fa:	2b00      	cmp	r3, #0
 80028fc:	d103      	bne.n	8002906 <xQueueGenericSend+0x136>
 80028fe:	f001 fec1 	bl	8004684 <vPortExitCritical>
 8002902:	2300      	movs	r3, #0
 8002904:	e05c      	b.n	80029c0 <xQueueGenericSend+0x1f0>
 8002906:	6b7b      	ldr	r3, [r7, #52]	; 0x34
 8002908:	2b00      	cmp	r3, #0
 800290a:	d106      	bne.n	800291a <xQueueGenericSend+0x14a>
 800290c:	f107 0314 	add.w	r3, r7, #20
 8002910:	4618      	mov	r0, r3
 8002912:	f000 ffd5 	bl	80038c0 <vTaskInternalSetTimeOutState>
 8002916:	2301      	movs	r3, #1
 8002918:	637b      	str	r3, [r7, #52]	; 0x34
 800291a:	f001 feb3 	bl	8004684 <vPortExitCritical>
 800291e:	f000 fd47 	bl	80033b0 <vTaskSuspendAll>
 8002922:	f001 fe7f 	bl	8004624 <vPortEnterCritical>
 8002926:	6b3b      	ldr	r3, [r7, #48]	; 0x30
 8002928:	f893 3044 	ldrb.w	r3, [r3, #68]	; 0x44
 800292c:	b25b      	sxtb	r3, r3
 800292e:	f1b3 3fff 	cmp.w	r3, #4294967295
 8002932:	d103      	bne.n	800293c <xQueueGenericSend+0x16c>
 8002934:	6b3b      	ldr	r3, [r7, #48]	; 0x30
 8002936:	2200      	movs	r2, #0
 8002938:	f883 2044 	strb.w	r2, [r3, #68]	; 0x44
 800293c:	6b3b      	ldr	r3, [r7, #48]	; 0x30
 800293e:	f893 3045 	ldrb.w	r3, [r3, #69]	; 0x45
 8002942:	b25b      	sxtb	r3, r3
 8002944:	f1b3 3fff 	cmp.w	r3, #4294967295
 8002948:	d103      	bne.n	8002952 <xQueueGenericSend+0x182>
 800294a:	6b3b      	ldr	r3, [r7, #48]	; 0x30
 800294c:	2200      	movs	r2, #0
 800294e:	f883 2045 	strb.w	r2, [r3, #69]	; 0x45
 8002952:	f001 fe97 	bl	8004684 <vPortExitCritical>
 8002956:	1d3a      	adds	r2, r7, #4
 8002958:	f107 0314 	add.w	r3, r7, #20
 800295c:	4611      	mov	r1, r2
 800295e:	4618      	mov	r0, r3
 8002960:	f000 ffc4 	bl	80038ec <xTaskCheckForTimeOut>
 8002964:	4603      	mov	r3, r0
 8002966:	2b00      	cmp	r3, #0
 8002968:	d124      	bne.n	80029b4 <xQueueGenericSend+0x1e4>
 800296a:	6b38      	ldr	r0, [r7, #48]	; 0x30
 800296c:	f000 faa2 	bl	8002eb4 <prvIsQueueFull>
 8002970:	4603      	mov	r3, r0
 8002972:	2b00      	cmp	r3, #0
 8002974:	d018      	beq.n	80029a8 <xQueueGenericSend+0x1d8>
 8002976:	6b3b      	ldr	r3, [r7, #48]	; 0x30
 8002978:	3310      	adds	r3, #16
 800297a:	687a      	ldr	r2, [r7, #4]
 800297c:	4611      	mov	r1, r2
 800297e:	4618      	mov	r0, r3
 8002980:	f000 feea 	bl	8003758 <vTaskPlaceOnEventList>
 8002984:	6b38      	ldr	r0, [r7, #48]	; 0x30
 8002986:	f000 fa2d 	bl	8002de4 <prvUnlockQueue>
 800298a:	f000 fd1f 	bl	80033cc <xTaskResumeAll>
 800298e:	4603      	mov	r3, r0
 8002990:	2b00      	cmp	r3, #0
 8002992:	f47f af7c 	bne.w	800288e <xQueueGenericSend+0xbe>
 8002996:	4b0c      	ldr	r3, [pc, #48]	; (80029c8 <xQueueGenericSend+0x1f8>)
 8002998:	f04f 5280 	mov.w	r2, #268435456	; 0x10000000
 800299c:	601a      	str	r2, [r3, #0]
 800299e:	f3bf 8f4f 	dsb	sy
 80029a2:	f3bf 8f6f 	isb	sy
 80029a6:	e772      	b.n	800288e <xQueueGenericSend+0xbe>
 80029a8:	6b38      	ldr	r0, [r7, #48]	; 0x30
 80029aa:	f000 fa1b 	bl	8002de4 <prvUnlockQueue>
 80029ae:	f000 fd0d 	bl	80033cc <xTaskResumeAll>
 80029b2:	e76c      	b.n	800288e <xQueueGenericSend+0xbe>
 80029b4:	6b38      	ldr	r0, [r7, #48]	; 0x30
 80029b6:	f000 fa15 	bl	8002de4 <prvUnlockQueue>
 80029ba:	f000 fd07 	bl	80033cc <xTaskResumeAll>
 80029be:	2300      	movs	r3, #0
 80029c0:	4618      	mov	r0, r3
 80029c2:	3738      	adds	r7, #56	; 0x38
 80029c4:	46bd      	mov	sp, r7
 80029c6:	bd80      	pop	{r7, pc}
 80029c8:	e000ed04 	.word	0xe000ed04

080029cc <xQueueGenericSendFromISR>:
 80029cc:	b580      	push	{r7, lr}
 80029ce:	b090      	sub	sp, #64	; 0x40
 80029d0:	af00      	add	r7, sp, #0
 80029d2:	60f8      	str	r0, [r7, #12]
 80029d4:	60b9      	str	r1, [r7, #8]
 80029d6:	607a      	str	r2, [r7, #4]
 80029d8:	603b      	str	r3, [r7, #0]
 80029da:	68fb      	ldr	r3, [r7, #12]
 80029dc:	63bb      	str	r3, [r7, #56]	; 0x38
 80029de:	6bbb      	ldr	r3, [r7, #56]	; 0x38
 80029e0:	2b00      	cmp	r3, #0
 80029e2:	d10a      	bne.n	80029fa <xQueueGenericSendFromISR+0x2e>
 80029e4:	f04f 0350 	mov.w	r3, #80	; 0x50
 80029e8:	f383 8811 	msr	BASEPRI, r3
 80029ec:	f3bf 8f6f 	isb	sy
 80029f0:	f3bf 8f4f 	dsb	sy
 80029f4:	62bb      	str	r3, [r7, #40]	; 0x28
 80029f6:	bf00      	nop
 80029f8:	e7fe      	b.n	80029f8 <xQueueGenericSendFromISR+0x2c>
 80029fa:	68bb      	ldr	r3, [r7, #8]
 80029fc:	2b00      	cmp	r3, #0
 80029fe:	d103      	bne.n	8002a08 <xQueueGenericSendFromISR+0x3c>
 8002a00:	6bbb      	ldr	r3, [r7, #56]	; 0x38
 8002a02:	6c1b      	ldr	r3, [r3, #64]	; 0x40
 8002a04:	2b00      	cmp	r3, #0
 8002a06:	d101      	bne.n	8002a0c <xQueueGenericSendFromISR+0x40>
 8002a08:	2301      	movs	r3, #1
 8002a0a:	e000      	b.n	8002a0e <xQueueGenericSendFromISR+0x42>
 8002a0c:	2300      	movs	r3, #0
 8002a0e:	2b00      	cmp	r3, #0
 8002a10:	d10a      	bne.n	8002a28 <xQueueGenericSendFromISR+0x5c>
 8002a12:	f04f 0350 	mov.w	r3, #80	; 0x50
 8002a16:	f383 8811 	msr	BASEPRI, r3
 8002a1a:	f3bf 8f6f 	isb	sy
 8002a1e:	f3bf 8f4f 	dsb	sy
 8002a22:	627b      	str	r3, [r7, #36]	; 0x24
 8002a24:	bf00      	nop
 8002a26:	e7fe      	b.n	8002a26 <xQueueGenericSendFromISR+0x5a>
 8002a28:	683b      	ldr	r3, [r7, #0]
 8002a2a:	2b02      	cmp	r3, #2
 8002a2c:	d103      	bne.n	8002a36 <xQueueGenericSendFromISR+0x6a>
 8002a2e:	6bbb      	ldr	r3, [r7, #56]	; 0x38
 8002a30:	6bdb      	ldr	r3, [r3, #60]	; 0x3c
 8002a32:	2b01      	cmp	r3, #1
 8002a34:	d101      	bne.n	8002a3a <xQueueGenericSendFromISR+0x6e>
 8002a36:	2301      	movs	r3, #1
 8002a38:	e000      	b.n	8002a3c <xQueueGenericSendFromISR+0x70>
 8002a3a:	2300      	movs	r3, #0
 8002a3c:	2b00      	cmp	r3, #0
 8002a3e:	d10a      	bne.n	8002a56 <xQueueGenericSendFromISR+0x8a>
 8002a40:	f04f 0350 	mov.w	r3, #80	; 0x50
 8002a44:	f383 8811 	msr	BASEPRI, r3
 8002a48:	f3bf 8f6f 	isb	sy
 8002a4c:	f3bf 8f4f 	dsb	sy
 8002a50:	623b      	str	r3, [r7, #32]
 8002a52:	bf00      	nop
 8002a54:	e7fe      	b.n	8002a54 <xQueueGenericSendFromISR+0x88>
 8002a56:	f001 fec7 	bl	80047e8 <vPortValidateInterruptPriority>
 8002a5a:	f3ef 8211 	mrs	r2, BASEPRI
 8002a5e:	f04f 0350 	mov.w	r3, #80	; 0x50
 8002a62:	f383 8811 	msr	BASEPRI, r3
 8002a66:	f3bf 8f6f 	isb	sy
 8002a6a:	f3bf 8f4f 	dsb	sy
 8002a6e:	61fa      	str	r2, [r7, #28]
 8002a70:	61bb      	str	r3, [r7, #24]
 8002a72:	69fb      	ldr	r3, [r7, #28]
 8002a74:	637b      	str	r3, [r7, #52]	; 0x34
 8002a76:	6bbb      	ldr	r3, [r7, #56]	; 0x38
 8002a78:	6b9a      	ldr	r2, [r3, #56]	; 0x38
 8002a7a:	6bbb      	ldr	r3, [r7, #56]	; 0x38
 8002a7c:	6bdb      	ldr	r3, [r3, #60]	; 0x3c
 8002a7e:	429a      	cmp	r2, r3
 8002a80:	d302      	bcc.n	8002a88 <xQueueGenericSendFromISR+0xbc>
 8002a82:	683b      	ldr	r3, [r7, #0]
 8002a84:	2b02      	cmp	r3, #2
 8002a86:	d12f      	bne.n	8002ae8 <xQueueGenericSendFromISR+0x11c>
 8002a88:	6bbb      	ldr	r3, [r7, #56]	; 0x38
 8002a8a:	f893 3045 	ldrb.w	r3, [r3, #69]	; 0x45
 8002a8e:	f887 3033 	strb.w	r3, [r7, #51]	; 0x33
 8002a92:	6bbb      	ldr	r3, [r7, #56]	; 0x38
 8002a94:	6b9b      	ldr	r3, [r3, #56]	; 0x38
 8002a96:	62fb      	str	r3, [r7, #44]	; 0x2c
 8002a98:	683a      	ldr	r2, [r7, #0]
 8002a9a:	68b9      	ldr	r1, [r7, #8]
 8002a9c:	6bb8      	ldr	r0, [r7, #56]	; 0x38
 8002a9e:	f000 f911 	bl	8002cc4 <prvCopyDataToQueue>
 8002aa2:	f997 3033 	ldrsb.w	r3, [r7, #51]	; 0x33
 8002aa6:	f1b3 3fff 	cmp.w	r3, #4294967295
 8002aaa:	d112      	bne.n	8002ad2 <xQueueGenericSendFromISR+0x106>
 8002aac:	6bbb      	ldr	r3, [r7, #56]	; 0x38
 8002aae:	6a5b      	ldr	r3, [r3, #36]	; 0x24
 8002ab0:	2b00      	cmp	r3, #0
 8002ab2:	d016      	beq.n	8002ae2 <xQueueGenericSendFromISR+0x116>
 8002ab4:	6bbb      	ldr	r3, [r7, #56]	; 0x38
 8002ab6:	3324      	adds	r3, #36	; 0x24
 8002ab8:	4618      	mov	r0, r3
 8002aba:	f000 fe9d 	bl	80037f8 <xTaskRemoveFromEventList>
 8002abe:	4603      	mov	r3, r0
 8002ac0:	2b00      	cmp	r3, #0
 8002ac2:	d00e      	beq.n	8002ae2 <xQueueGenericSendFromISR+0x116>
 8002ac4:	687b      	ldr	r3, [r7, #4]
 8002ac6:	2b00      	cmp	r3, #0
 8002ac8:	d00b      	beq.n	8002ae2 <xQueueGenericSendFromISR+0x116>
 8002aca:	687b      	ldr	r3, [r7, #4]
 8002acc:	2201      	movs	r2, #1
 8002ace:	601a      	str	r2, [r3, #0]
 8002ad0:	e007      	b.n	8002ae2 <xQueueGenericSendFromISR+0x116>
 8002ad2:	f897 3033 	ldrb.w	r3, [r7, #51]	; 0x33
 8002ad6:	3301      	adds	r3, #1
 8002ad8:	b2db      	uxtb	r3, r3
 8002ada:	b25a      	sxtb	r2, r3
 8002adc:	6bbb      	ldr	r3, [r7, #56]	; 0x38
 8002ade:	f883 2045 	strb.w	r2, [r3, #69]	; 0x45
 8002ae2:	2301      	movs	r3, #1
 8002ae4:	63fb      	str	r3, [r7, #60]	; 0x3c
 8002ae6:	e001      	b.n	8002aec <xQueueGenericSendFromISR+0x120>
 8002ae8:	2300      	movs	r3, #0
 8002aea:	63fb      	str	r3, [r7, #60]	; 0x3c
 8002aec:	6b7b      	ldr	r3, [r7, #52]	; 0x34
 8002aee:	617b      	str	r3, [r7, #20]
 8002af0:	697b      	ldr	r3, [r7, #20]
 8002af2:	f383 8811 	msr	BASEPRI, r3
 8002af6:	bf00      	nop
 8002af8:	6bfb      	ldr	r3, [r7, #60]	; 0x3c
 8002afa:	4618      	mov	r0, r3
 8002afc:	3740      	adds	r7, #64	; 0x40
 8002afe:	46bd      	mov	sp, r7
 8002b00:	bd80      	pop	{r7, pc}
	...

08002b04 <xQueueReceive>:
 8002b04:	b580      	push	{r7, lr}
 8002b06:	b08c      	sub	sp, #48	; 0x30
 8002b08:	af00      	add	r7, sp, #0
 8002b0a:	60f8      	str	r0, [r7, #12]
 8002b0c:	60b9      	str	r1, [r7, #8]
 8002b0e:	607a      	str	r2, [r7, #4]
 8002b10:	2300      	movs	r3, #0
 8002b12:	62fb      	str	r3, [r7, #44]	; 0x2c
 8002b14:	68fb      	ldr	r3, [r7, #12]
 8002b16:	62bb      	str	r3, [r7, #40]	; 0x28
 8002b18:	6abb      	ldr	r3, [r7, #40]	; 0x28
 8002b1a:	2b00      	cmp	r3, #0
 8002b1c:	d10a      	bne.n	8002b34 <xQueueReceive+0x30>
 8002b1e:	f04f 0350 	mov.w	r3, #80	; 0x50
 8002b22:	f383 8811 	msr	BASEPRI, r3
 8002b26:	f3bf 8f6f 	isb	sy
 8002b2a:	f3bf 8f4f 	dsb	sy
 8002b2e:	623b      	str	r3, [r7, #32]
 8002b30:	bf00      	nop
 8002b32:	e7fe      	b.n	8002b32 <xQueueReceive+0x2e>
 8002b34:	68bb      	ldr	r3, [r7, #8]
 8002b36:	2b00      	cmp	r3, #0
 8002b38:	d103      	bne.n	8002b42 <xQueueReceive+0x3e>
 8002b3a:	6abb      	ldr	r3, [r7, #40]	; 0x28
 8002b3c:	6c1b      	ldr	r3, [r3, #64]	; 0x40
 8002b3e:	2b00      	cmp	r3, #0
 8002b40:	d101      	bne.n	8002b46 <xQueueReceive+0x42>
 8002b42:	2301      	movs	r3, #1
 8002b44:	e000      	b.n	8002b48 <xQueueReceive+0x44>
 8002b46:	2300      	movs	r3, #0
 8002b48:	2b00      	cmp	r3, #0
 8002b4a:	d10a      	bne.n	8002b62 <xQueueReceive+0x5e>
 8002b4c:	f04f 0350 	mov.w	r3, #80	; 0x50
 8002b50:	f383 8811 	msr	BASEPRI, r3
 8002b54:	f3bf 8f6f 	isb	sy
 8002b58:	f3bf 8f4f 	dsb	sy
 8002b5c:	61fb      	str	r3, [r7, #28]
 8002b5e:	bf00      	nop
 8002b60:	e7fe      	b.n	8002b60 <xQueueReceive+0x5c>
 8002b62:	f001 f807 	bl	8003b74 <xTaskGetSchedulerState>
 8002b66:	4603      	mov	r3, r0
 8002b68:	2b00      	cmp	r3, #0
 8002b6a:	d102      	bne.n	8002b72 <xQueueReceive+0x6e>
 8002b6c:	687b      	ldr	r3, [r7, #4]
 8002b6e:	2b00      	cmp	r3, #0
 8002b70:	d101      	bne.n	8002b76 <xQueueReceive+0x72>
 8002b72:	2301      	movs	r3, #1
 8002b74:	e000      	b.n	8002b78 <xQueueReceive+0x74>
 8002b76:	2300      	movs	r3, #0
 8002b78:	2b00      	cmp	r3, #0
 8002b7a:	d10a      	bne.n	8002b92 <xQueueReceive+0x8e>
 8002b7c:	f04f 0350 	mov.w	r3, #80	; 0x50
 8002b80:	f383 8811 	msr	BASEPRI, r3
 8002b84:	f3bf 8f6f 	isb	sy
 8002b88:	f3bf 8f4f 	dsb	sy
 8002b8c:	61bb      	str	r3, [r7, #24]
 8002b8e:	bf00      	nop
 8002b90:	e7fe      	b.n	8002b90 <xQueueReceive+0x8c>
 8002b92:	f001 fd47 	bl	8004624 <vPortEnterCritical>
 8002b96:	6abb      	ldr	r3, [r7, #40]	; 0x28
 8002b98:	6b9b      	ldr	r3, [r3, #56]	; 0x38
 8002b9a:	627b      	str	r3, [r7, #36]	; 0x24
 8002b9c:	6a7b      	ldr	r3, [r7, #36]	; 0x24
 8002b9e:	2b00      	cmp	r3, #0
 8002ba0:	d01f      	beq.n	8002be2 <xQueueReceive+0xde>
 8002ba2:	68b9      	ldr	r1, [r7, #8]
 8002ba4:	6ab8      	ldr	r0, [r7, #40]	; 0x28
 8002ba6:	f000 f8f7 	bl	8002d98 <prvCopyDataFromQueue>
 8002baa:	6a7b      	ldr	r3, [r7, #36]	; 0x24
 8002bac:	1e5a      	subs	r2, r3, #1
 8002bae:	6abb      	ldr	r3, [r7, #40]	; 0x28
 8002bb0:	639a      	str	r2, [r3, #56]	; 0x38
 8002bb2:	6abb      	ldr	r3, [r7, #40]	; 0x28
 8002bb4:	691b      	ldr	r3, [r3, #16]
 8002bb6:	2b00      	cmp	r3, #0
 8002bb8:	d00f      	beq.n	8002bda <xQueueReceive+0xd6>
 8002bba:	6abb      	ldr	r3, [r7, #40]	; 0x28
 8002bbc:	3310      	adds	r3, #16
 8002bbe:	4618      	mov	r0, r3
 8002bc0:	f000 fe1a 	bl	80037f8 <xTaskRemoveFromEventList>
 8002bc4:	4603      	mov	r3, r0
 8002bc6:	2b00      	cmp	r3, #0
 8002bc8:	d007      	beq.n	8002bda <xQueueReceive+0xd6>
 8002bca:	4b3d      	ldr	r3, [pc, #244]	; (8002cc0 <xQueueReceive+0x1bc>)
 8002bcc:	f04f 5280 	mov.w	r2, #268435456	; 0x10000000
 8002bd0:	601a      	str	r2, [r3, #0]
 8002bd2:	f3bf 8f4f 	dsb	sy
 8002bd6:	f3bf 8f6f 	isb	sy
 8002bda:	f001 fd53 	bl	8004684 <vPortExitCritical>
 8002bde:	2301      	movs	r3, #1
 8002be0:	e069      	b.n	8002cb6 <xQueueReceive+0x1b2>
 8002be2:	687b      	ldr	r3, [r7, #4]
 8002be4:	2b00      	cmp	r3, #0
 8002be6:	d103      	bne.n	8002bf0 <xQueueReceive+0xec>
 8002be8:	f001 fd4c 	bl	8004684 <vPortExitCritical>
 8002bec:	2300      	movs	r3, #0
 8002bee:	e062      	b.n	8002cb6 <xQueueReceive+0x1b2>
 8002bf0:	6afb      	ldr	r3, [r7, #44]	; 0x2c
 8002bf2:	2b00      	cmp	r3, #0
 8002bf4:	d106      	bne.n	8002c04 <xQueueReceive+0x100>
 8002bf6:	f107 0310 	add.w	r3, r7, #16
 8002bfa:	4618      	mov	r0, r3
 8002bfc:	f000 fe60 	bl	80038c0 <vTaskInternalSetTimeOutState>
 8002c00:	2301      	movs	r3, #1
 8002c02:	62fb      	str	r3, [r7, #44]	; 0x2c
 8002c04:	f001 fd3e 	bl	8004684 <vPortExitCritical>
 8002c08:	f000 fbd2 	bl	80033b0 <vTaskSuspendAll>
 8002c0c:	f001 fd0a 	bl	8004624 <vPortEnterCritical>
 8002c10:	6abb      	ldr	r3, [r7, #40]	; 0x28
 8002c12:	f893 3044 	ldrb.w	r3, [r3, #68]	; 0x44
 8002c16:	b25b      	sxtb	r3, r3
 8002c18:	f1b3 3fff 	cmp.w	r3, #4294967295
 8002c1c:	d103      	bne.n	8002c26 <xQueueReceive+0x122>
 8002c1e:	6abb      	ldr	r3, [r7, #40]	; 0x28
 8002c20:	2200      	movs	r2, #0
 8002c22:	f883 2044 	strb.w	r2, [r3, #68]	; 0x44
 8002c26:	6abb      	ldr	r3, [r7, #40]	; 0x28
 8002c28:	f893 3045 	ldrb.w	r3, [r3, #69]	; 0x45
 8002c2c:	b25b      	sxtb	r3, r3
 8002c2e:	f1b3 3fff 	cmp.w	r3, #4294967295
 8002c32:	d103      	bne.n	8002c3c <xQueueReceive+0x138>
 8002c34:	6abb      	ldr	r3, [r7, #40]	; 0x28
 8002c36:	2200      	movs	r2, #0
 8002c38:	f883 2045 	strb.w	r2, [r3, #69]	; 0x45
 8002c3c:	f001 fd22 	bl	8004684 <vPortExitCritical>
 8002c40:	1d3a      	adds	r2, r7, #4
 8002c42:	f107 0310 	add.w	r3, r7, #16
 8002c46:	4611      	mov	r1, r2
 8002c48:	4618      	mov	r0, r3
 8002c4a:	f000 fe4f 	bl	80038ec <xTaskCheckForTimeOut>
 8002c4e:	4603      	mov	r3, r0
 8002c50:	2b00      	cmp	r3, #0
 8002c52:	d123      	bne.n	8002c9c <xQueueReceive+0x198>
 8002c54:	6ab8      	ldr	r0, [r7, #40]	; 0x28
 8002c56:	f000 f917 	bl	8002e88 <prvIsQueueEmpty>
 8002c5a:	4603      	mov	r3, r0
 8002c5c:	2b00      	cmp	r3, #0
 8002c5e:	d017      	beq.n	8002c90 <xQueueReceive+0x18c>
 8002c60:	6abb      	ldr	r3, [r7, #40]	; 0x28
 8002c62:	3324      	adds	r3, #36	; 0x24
 8002c64:	687a      	ldr	r2, [r7, #4]
 8002c66:	4611      	mov	r1, r2
 8002c68:	4618      	mov	r0, r3
 8002c6a:	f000 fd75 	bl	8003758 <vTaskPlaceOnEventList>
 8002c6e:	6ab8      	ldr	r0, [r7, #40]	; 0x28
 8002c70:	f000 f8b8 	bl	8002de4 <prvUnlockQueue>
 8002c74:	f000 fbaa 	bl	80033cc <xTaskResumeAll>
 8002c78:	4603      	mov	r3, r0
 8002c7a:	2b00      	cmp	r3, #0
 8002c7c:	d189      	bne.n	8002b92 <xQueueReceive+0x8e>
 8002c7e:	4b10      	ldr	r3, [pc, #64]	; (8002cc0 <xQueueReceive+0x1bc>)
 8002c80:	f04f 5280 	mov.w	r2, #268435456	; 0x10000000
 8002c84:	601a      	str	r2, [r3, #0]
 8002c86:	f3bf 8f4f 	dsb	sy
 8002c8a:	f3bf 8f6f 	isb	sy
 8002c8e:	e780      	b.n	8002b92 <xQueueReceive+0x8e>
 8002c90:	6ab8      	ldr	r0, [r7, #40]	; 0x28
 8002c92:	f000 f8a7 	bl	8002de4 <prvUnlockQueue>
 8002c96:	f000 fb99 	bl	80033cc <xTaskResumeAll>
 8002c9a:	e77a      	b.n	8002b92 <xQueueReceive+0x8e>
 8002c9c:	6ab8      	ldr	r0, [r7, #40]	; 0x28
 8002c9e:	f000 f8a1 	bl	8002de4 <prvUnlockQueue>
 8002ca2:	f000 fb93 	bl	80033cc <xTaskResumeAll>
 8002ca6:	6ab8      	ldr	r0, [r7, #40]	; 0x28
 8002ca8:	f000 f8ee 	bl	8002e88 <prvIsQueueEmpty>
 8002cac:	4603      	mov	r3, r0
 8002cae:	2b00      	cmp	r3, #0
 8002cb0:	f43f af6f 	beq.w	8002b92 <xQueueReceive+0x8e>
 8002cb4:	2300      	movs	r3, #0
 8002cb6:	4618      	mov	r0, r3
 8002cb8:	3730      	adds	r7, #48	; 0x30
 8002cba:	46bd      	mov	sp, r7
 8002cbc:	bd80      	pop	{r7, pc}
 8002cbe:	bf00      	nop
 8002cc0:	e000ed04 	.word	0xe000ed04

08002cc4 <prvCopyDataToQueue>:
 8002cc4:	b580      	push	{r7, lr}
 8002cc6:	b086      	sub	sp, #24
 8002cc8:	af00      	add	r7, sp, #0
 8002cca:	60f8      	str	r0, [r7, #12]
 8002ccc:	60b9      	str	r1, [r7, #8]
 8002cce:	607a      	str	r2, [r7, #4]
 8002cd0:	2300      	movs	r3, #0
 8002cd2:	617b      	str	r3, [r7, #20]
 8002cd4:	68fb      	ldr	r3, [r7, #12]
 8002cd6:	6b9b      	ldr	r3, [r3, #56]	; 0x38
 8002cd8:	613b      	str	r3, [r7, #16]
 8002cda:	68fb      	ldr	r3, [r7, #12]
 8002cdc:	6c1b      	ldr	r3, [r3, #64]	; 0x40
 8002cde:	2b00      	cmp	r3, #0
 8002ce0:	d10d      	bne.n	8002cfe <prvCopyDataToQueue+0x3a>
 8002ce2:	68fb      	ldr	r3, [r7, #12]
 8002ce4:	681b      	ldr	r3, [r3, #0]
 8002ce6:	2b00      	cmp	r3, #0
 8002ce8:	d14d      	bne.n	8002d86 <prvCopyDataToQueue+0xc2>
 8002cea:	68fb      	ldr	r3, [r7, #12]
 8002cec:	689b      	ldr	r3, [r3, #8]
 8002cee:	4618      	mov	r0, r3
 8002cf0:	f000 ff5e 	bl	8003bb0 <xTaskPriorityDisinherit>
 8002cf4:	6178      	str	r0, [r7, #20]
 8002cf6:	68fb      	ldr	r3, [r7, #12]
 8002cf8:	2200      	movs	r2, #0
 8002cfa:	609a      	str	r2, [r3, #8]
 8002cfc:	e043      	b.n	8002d86 <prvCopyDataToQueue+0xc2>
 8002cfe:	687b      	ldr	r3, [r7, #4]
 8002d00:	2b00      	cmp	r3, #0
 8002d02:	d119      	bne.n	8002d38 <prvCopyDataToQueue+0x74>
 8002d04:	68fb      	ldr	r3, [r7, #12]
 8002d06:	6858      	ldr	r0, [r3, #4]
 8002d08:	68fb      	ldr	r3, [r7, #12]
 8002d0a:	6c1b      	ldr	r3, [r3, #64]	; 0x40
 8002d0c:	461a      	mov	r2, r3
 8002d0e:	68b9      	ldr	r1, [r7, #8]
 8002d10:	f001 ffb8 	bl	8004c84 <memcpy>
 8002d14:	68fb      	ldr	r3, [r7, #12]
 8002d16:	685a      	ldr	r2, [r3, #4]
 8002d18:	68fb      	ldr	r3, [r7, #12]
 8002d1a:	6c1b      	ldr	r3, [r3, #64]	; 0x40
 8002d1c:	441a      	add	r2, r3
 8002d1e:	68fb      	ldr	r3, [r7, #12]
 8002d20:	605a      	str	r2, [r3, #4]
 8002d22:	68fb      	ldr	r3, [r7, #12]
 8002d24:	685a      	ldr	r2, [r3, #4]
 8002d26:	68fb      	ldr	r3, [r7, #12]
 8002d28:	689b      	ldr	r3, [r3, #8]
 8002d2a:	429a      	cmp	r2, r3
 8002d2c:	d32b      	bcc.n	8002d86 <prvCopyDataToQueue+0xc2>
 8002d2e:	68fb      	ldr	r3, [r7, #12]
 8002d30:	681a      	ldr	r2, [r3, #0]
 8002d32:	68fb      	ldr	r3, [r7, #12]
 8002d34:	605a      	str	r2, [r3, #4]
 8002d36:	e026      	b.n	8002d86 <prvCopyDataToQueue+0xc2>
 8002d38:	68fb      	ldr	r3, [r7, #12]
 8002d3a:	68d8      	ldr	r0, [r3, #12]
 8002d3c:	68fb      	ldr	r3, [r7, #12]
 8002d3e:	6c1b      	ldr	r3, [r3, #64]	; 0x40
 8002d40:	461a      	mov	r2, r3
 8002d42:	68b9      	ldr	r1, [r7, #8]
 8002d44:	f001 ff9e 	bl	8004c84 <memcpy>
 8002d48:	68fb      	ldr	r3, [r7, #12]
 8002d4a:	68da      	ldr	r2, [r3, #12]
 8002d4c:	68fb      	ldr	r3, [r7, #12]
 8002d4e:	6c1b      	ldr	r3, [r3, #64]	; 0x40
 8002d50:	425b      	negs	r3, r3
 8002d52:	441a      	add	r2, r3
 8002d54:	68fb      	ldr	r3, [r7, #12]
 8002d56:	60da      	str	r2, [r3, #12]
 8002d58:	68fb      	ldr	r3, [r7, #12]
 8002d5a:	68da      	ldr	r2, [r3, #12]
 8002d5c:	68fb      	ldr	r3, [r7, #12]
 8002d5e:	681b      	ldr	r3, [r3, #0]
 8002d60:	429a      	cmp	r2, r3
 8002d62:	d207      	bcs.n	8002d74 <prvCopyDataToQueue+0xb0>
 8002d64:	68fb      	ldr	r3, [r7, #12]
 8002d66:	689a      	ldr	r2, [r3, #8]
 8002d68:	68fb      	ldr	r3, [r7, #12]
 8002d6a:	6c1b      	ldr	r3, [r3, #64]	; 0x40
 8002d6c:	425b      	negs	r3, r3
 8002d6e:	441a      	add	r2, r3
 8002d70:	68fb      	ldr	r3, [r7, #12]
 8002d72:	60da      	str	r2, [r3, #12]
 8002d74:	687b      	ldr	r3, [r7, #4]
 8002d76:	2b02      	cmp	r3, #2
 8002d78:	d105      	bne.n	8002d86 <prvCopyDataToQueue+0xc2>
 8002d7a:	693b      	ldr	r3, [r7, #16]
 8002d7c:	2b00      	cmp	r3, #0
 8002d7e:	d002      	beq.n	8002d86 <prvCopyDataToQueue+0xc2>
 8002d80:	693b      	ldr	r3, [r7, #16]
 8002d82:	3b01      	subs	r3, #1
 8002d84:	613b      	str	r3, [r7, #16]
 8002d86:	693b      	ldr	r3, [r7, #16]
 8002d88:	1c5a      	adds	r2, r3, #1
 8002d8a:	68fb      	ldr	r3, [r7, #12]
 8002d8c:	639a      	str	r2, [r3, #56]	; 0x38
 8002d8e:	697b      	ldr	r3, [r7, #20]
 8002d90:	4618      	mov	r0, r3
 8002d92:	3718      	adds	r7, #24
 8002d94:	46bd      	mov	sp, r7
 8002d96:	bd80      	pop	{r7, pc}

08002d98 <prvCopyDataFromQueue>:
 8002d98:	b580      	push	{r7, lr}
 8002d9a:	b082      	sub	sp, #8
 8002d9c:	af00      	add	r7, sp, #0
 8002d9e:	6078      	str	r0, [r7, #4]
 8002da0:	6039      	str	r1, [r7, #0]
 8002da2:	687b      	ldr	r3, [r7, #4]
 8002da4:	6c1b      	ldr	r3, [r3, #64]	; 0x40
 8002da6:	2b00      	cmp	r3, #0
 8002da8:	d018      	beq.n	8002ddc <prvCopyDataFromQueue+0x44>
 8002daa:	687b      	ldr	r3, [r7, #4]
 8002dac:	68da      	ldr	r2, [r3, #12]
 8002dae:	687b      	ldr	r3, [r7, #4]
 8002db0:	6c1b      	ldr	r3, [r3, #64]	; 0x40
 8002db2:	441a      	add	r2, r3
 8002db4:	687b      	ldr	r3, [r7, #4]
 8002db6:	60da      	str	r2, [r3, #12]
 8002db8:	687b      	ldr	r3, [r7, #4]
 8002dba:	68da      	ldr	r2, [r3, #12]
 8002dbc:	687b      	ldr	r3, [r7, #4]
 8002dbe:	689b      	ldr	r3, [r3, #8]
 8002dc0:	429a      	cmp	r2, r3
 8002dc2:	d303      	bcc.n	8002dcc <prvCopyDataFromQueue+0x34>
 8002dc4:	687b      	ldr	r3, [r7, #4]
 8002dc6:	681a      	ldr	r2, [r3, #0]
 8002dc8:	687b      	ldr	r3, [r7, #4]
 8002dca:	60da      	str	r2, [r3, #12]
 8002dcc:	687b      	ldr	r3, [r7, #4]
 8002dce:	68d9      	ldr	r1, [r3, #12]
 8002dd0:	687b      	ldr	r3, [r7, #4]
 8002dd2:	6c1b      	ldr	r3, [r3, #64]	; 0x40
 8002dd4:	461a      	mov	r2, r3
 8002dd6:	6838      	ldr	r0, [r7, #0]
 8002dd8:	f001 ff54 	bl	8004c84 <memcpy>
 8002ddc:	bf00      	nop
 8002dde:	3708      	adds	r7, #8
 8002de0:	46bd      	mov	sp, r7
 8002de2:	bd80      	pop	{r7, pc}

08002de4 <prvUnlockQueue>:
 8002de4:	b580      	push	{r7, lr}
 8002de6:	b084      	sub	sp, #16
 8002de8:	af00      	add	r7, sp, #0
 8002dea:	6078      	str	r0, [r7, #4]
 8002dec:	f001 fc1a 	bl	8004624 <vPortEnterCritical>
 8002df0:	687b      	ldr	r3, [r7, #4]
 8002df2:	f893 3045 	ldrb.w	r3, [r3, #69]	; 0x45
 8002df6:	73fb      	strb	r3, [r7, #15]
 8002df8:	e011      	b.n	8002e1e <prvUnlockQueue+0x3a>
 8002dfa:	687b      	ldr	r3, [r7, #4]
 8002dfc:	6a5b      	ldr	r3, [r3, #36]	; 0x24
 8002dfe:	2b00      	cmp	r3, #0
 8002e00:	d012      	beq.n	8002e28 <prvUnlockQueue+0x44>
 8002e02:	687b      	ldr	r3, [r7, #4]
 8002e04:	3324      	adds	r3, #36	; 0x24
 8002e06:	4618      	mov	r0, r3
 8002e08:	f000 fcf6 	bl	80037f8 <xTaskRemoveFromEventList>
 8002e0c:	4603      	mov	r3, r0
 8002e0e:	2b00      	cmp	r3, #0
 8002e10:	d001      	beq.n	8002e16 <prvUnlockQueue+0x32>
 8002e12:	f000 fdcd 	bl	80039b0 <vTaskMissedYield>
 8002e16:	7bfb      	ldrb	r3, [r7, #15]
 8002e18:	3b01      	subs	r3, #1
 8002e1a:	b2db      	uxtb	r3, r3
 8002e1c:	73fb      	strb	r3, [r7, #15]
 8002e1e:	f997 300f 	ldrsb.w	r3, [r7, #15]
 8002e22:	2b00      	cmp	r3, #0
 8002e24:	dce9      	bgt.n	8002dfa <prvUnlockQueue+0x16>
 8002e26:	e000      	b.n	8002e2a <prvUnlockQueue+0x46>
 8002e28:	bf00      	nop
 8002e2a:	687b      	ldr	r3, [r7, #4]
 8002e2c:	22ff      	movs	r2, #255	; 0xff
 8002e2e:	f883 2045 	strb.w	r2, [r3, #69]	; 0x45
 8002e32:	f001 fc27 	bl	8004684 <vPortExitCritical>
 8002e36:	f001 fbf5 	bl	8004624 <vPortEnterCritical>
 8002e3a:	687b      	ldr	r3, [r7, #4]
 8002e3c:	f893 3044 	ldrb.w	r3, [r3, #68]	; 0x44
 8002e40:	73bb      	strb	r3, [r7, #14]
 8002e42:	e011      	b.n	8002e68 <prvUnlockQueue+0x84>
 8002e44:	687b      	ldr	r3, [r7, #4]
 8002e46:	691b      	ldr	r3, [r3, #16]
 8002e48:	2b00      	cmp	r3, #0
 8002e4a:	d012      	beq.n	8002e72 <prvUnlockQueue+0x8e>
 8002e4c:	687b      	ldr	r3, [r7, #4]
 8002e4e:	3310      	adds	r3, #16
 8002e50:	4618      	mov	r0, r3
 8002e52:	f000 fcd1 	bl	80037f8 <xTaskRemoveFromEventList>
 8002e56:	4603      	mov	r3, r0
 8002e58:	2b00      	cmp	r3, #0
 8002e5a:	d001      	beq.n	8002e60 <prvUnlockQueue+0x7c>
 8002e5c:	f000 fda8 	bl	80039b0 <vTaskMissedYield>
 8002e60:	7bbb      	ldrb	r3, [r7, #14]
 8002e62:	3b01      	subs	r3, #1
 8002e64:	b2db      	uxtb	r3, r3
 8002e66:	73bb      	strb	r3, [r7, #14]
 8002e68:	f997 300e 	ldrsb.w	r3, [r7, #14]
 8002e6c:	2b00      	cmp	r3, #0
 8002e6e:	dce9      	bgt.n	8002e44 <prvUnlockQueue+0x60>
 8002e70:	e000      	b.n	8002e74 <prvUnlockQueue+0x90>
 8002e72:	bf00      	nop
 8002e74:	687b      	ldr	r3, [r7, #4]
 8002e76:	22ff      	movs	r2, #255	; 0xff
 8002e78:	f883 2044 	strb.w	r2, [r3, #68]	; 0x44
 8002e7c:	f001 fc02 	bl	8004684 <vPortExitCritical>
 8002e80:	bf00      	nop
 8002e82:	3710      	adds	r7, #16
 8002e84:	46bd      	mov	sp, r7
 8002e86:	bd80      	pop	{r7, pc}

08002e88 <prvIsQueueEmpty>:
 8002e88:	b580      	push	{r7, lr}
 8002e8a:	b084      	sub	sp, #16
 8002e8c:	af00      	add	r7, sp, #0
 8002e8e:	6078      	str	r0, [r7, #4]
 8002e90:	f001 fbc8 	bl	8004624 <vPortEnterCritical>
 8002e94:	687b      	ldr	r3, [r7, #4]
 8002e96:	6b9b      	ldr	r3, [r3, #56]	; 0x38
 8002e98:	2b00      	cmp	r3, #0
 8002e9a:	d102      	bne.n	8002ea2 <prvIsQueueEmpty+0x1a>
 8002e9c:	2301      	movs	r3, #1
 8002e9e:	60fb      	str	r3, [r7, #12]
 8002ea0:	e001      	b.n	8002ea6 <prvIsQueueEmpty+0x1e>
 8002ea2:	2300      	movs	r3, #0
 8002ea4:	60fb      	str	r3, [r7, #12]
 8002ea6:	f001 fbed 	bl	8004684 <vPortExitCritical>
 8002eaa:	68fb      	ldr	r3, [r7, #12]
 8002eac:	4618      	mov	r0, r3
 8002eae:	3710      	adds	r7, #16
 8002eb0:	46bd      	mov	sp, r7
 8002eb2:	bd80      	pop	{r7, pc}

08002eb4 <prvIsQueueFull>:
 8002eb4:	b580      	push	{r7, lr}
 8002eb6:	b084      	sub	sp, #16
 8002eb8:	af00      	add	r7, sp, #0
 8002eba:	6078      	str	r0, [r7, #4]
 8002ebc:	f001 fbb2 	bl	8004624 <vPortEnterCritical>
 8002ec0:	687b      	ldr	r3, [r7, #4]
 8002ec2:	6b9a      	ldr	r2, [r3, #56]	; 0x38
 8002ec4:	687b      	ldr	r3, [r7, #4]
 8002ec6:	6bdb      	ldr	r3, [r3, #60]	; 0x3c
 8002ec8:	429a      	cmp	r2, r3
 8002eca:	d102      	bne.n	8002ed2 <prvIsQueueFull+0x1e>
 8002ecc:	2301      	movs	r3, #1
 8002ece:	60fb      	str	r3, [r7, #12]
 8002ed0:	e001      	b.n	8002ed6 <prvIsQueueFull+0x22>
 8002ed2:	2300      	movs	r3, #0
 8002ed4:	60fb      	str	r3, [r7, #12]
 8002ed6:	f001 fbd5 	bl	8004684 <vPortExitCritical>
 8002eda:	68fb      	ldr	r3, [r7, #12]
 8002edc:	4618      	mov	r0, r3
 8002ede:	3710      	adds	r7, #16
 8002ee0:	46bd      	mov	sp, r7
 8002ee2:	bd80      	pop	{r7, pc}

08002ee4 <vQueueAddToRegistry>:
 8002ee4:	b480      	push	{r7}
 8002ee6:	b085      	sub	sp, #20
 8002ee8:	af00      	add	r7, sp, #0
 8002eea:	6078      	str	r0, [r7, #4]
 8002eec:	6039      	str	r1, [r7, #0]
 8002eee:	2300      	movs	r3, #0
 8002ef0:	60fb      	str	r3, [r7, #12]
 8002ef2:	e014      	b.n	8002f1e <vQueueAddToRegistry+0x3a>
 8002ef4:	4a0f      	ldr	r2, [pc, #60]	; (8002f34 <vQueueAddToRegistry+0x50>)
 8002ef6:	68fb      	ldr	r3, [r7, #12]
 8002ef8:	f852 3033 	ldr.w	r3, [r2, r3, lsl #3]
 8002efc:	2b00      	cmp	r3, #0
 8002efe:	d10b      	bne.n	8002f18 <vQueueAddToRegistry+0x34>
 8002f00:	490c      	ldr	r1, [pc, #48]	; (8002f34 <vQueueAddToRegistry+0x50>)
 8002f02:	68fb      	ldr	r3, [r7, #12]
 8002f04:	683a      	ldr	r2, [r7, #0]
 8002f06:	f841 2033 	str.w	r2, [r1, r3, lsl #3]
 8002f0a:	4a0a      	ldr	r2, [pc, #40]	; (8002f34 <vQueueAddToRegistry+0x50>)
 8002f0c:	68fb      	ldr	r3, [r7, #12]
 8002f0e:	00db      	lsls	r3, r3, #3
 8002f10:	4413      	add	r3, r2
 8002f12:	687a      	ldr	r2, [r7, #4]
 8002f14:	605a      	str	r2, [r3, #4]
 8002f16:	e006      	b.n	8002f26 <vQueueAddToRegistry+0x42>
 8002f18:	68fb      	ldr	r3, [r7, #12]
 8002f1a:	3301      	adds	r3, #1
 8002f1c:	60fb      	str	r3, [r7, #12]
 8002f1e:	68fb      	ldr	r3, [r7, #12]
 8002f20:	2b07      	cmp	r3, #7
 8002f22:	d9e7      	bls.n	8002ef4 <vQueueAddToRegistry+0x10>
 8002f24:	bf00      	nop
 8002f26:	bf00      	nop
 8002f28:	3714      	adds	r7, #20
 8002f2a:	46bd      	mov	sp, r7
 8002f2c:	f85d 7b04 	ldr.w	r7, [sp], #4
 8002f30:	4770      	bx	lr
 8002f32:	bf00      	nop
 8002f34:	200049dc 	.word	0x200049dc

08002f38 <vQueueWaitForMessageRestricted>:
 8002f38:	b580      	push	{r7, lr}
 8002f3a:	b086      	sub	sp, #24
 8002f3c:	af00      	add	r7, sp, #0
 8002f3e:	60f8      	str	r0, [r7, #12]
 8002f40:	60b9      	str	r1, [r7, #8]
 8002f42:	607a      	str	r2, [r7, #4]
 8002f44:	68fb      	ldr	r3, [r7, #12]
 8002f46:	617b      	str	r3, [r7, #20]
 8002f48:	f001 fb6c 	bl	8004624 <vPortEnterCritical>
 8002f4c:	697b      	ldr	r3, [r7, #20]
 8002f4e:	f893 3044 	ldrb.w	r3, [r3, #68]	; 0x44
 8002f52:	b25b      	sxtb	r3, r3
 8002f54:	f1b3 3fff 	cmp.w	r3, #4294967295
 8002f58:	d103      	bne.n	8002f62 <vQueueWaitForMessageRestricted+0x2a>
 8002f5a:	697b      	ldr	r3, [r7, #20]
 8002f5c:	2200      	movs	r2, #0
 8002f5e:	f883 2044 	strb.w	r2, [r3, #68]	; 0x44
 8002f62:	697b      	ldr	r3, [r7, #20]
 8002f64:	f893 3045 	ldrb.w	r3, [r3, #69]	; 0x45
 8002f68:	b25b      	sxtb	r3, r3
 8002f6a:	f1b3 3fff 	cmp.w	r3, #4294967295
 8002f6e:	d103      	bne.n	8002f78 <vQueueWaitForMessageRestricted+0x40>
 8002f70:	697b      	ldr	r3, [r7, #20]
 8002f72:	2200      	movs	r2, #0
 8002f74:	f883 2045 	strb.w	r2, [r3, #69]	; 0x45
 8002f78:	f001 fb84 	bl	8004684 <vPortExitCritical>
 8002f7c:	697b      	ldr	r3, [r7, #20]
 8002f7e:	6b9b      	ldr	r3, [r3, #56]	; 0x38
 8002f80:	2b00      	cmp	r3, #0
 8002f82:	d106      	bne.n	8002f92 <vQueueWaitForMessageRestricted+0x5a>
 8002f84:	697b      	ldr	r3, [r7, #20]
 8002f86:	3324      	adds	r3, #36	; 0x24
 8002f88:	687a      	ldr	r2, [r7, #4]
 8002f8a:	68b9      	ldr	r1, [r7, #8]
 8002f8c:	4618      	mov	r0, r3
 8002f8e:	f000 fc07 	bl	80037a0 <vTaskPlaceOnEventListRestricted>
 8002f92:	6978      	ldr	r0, [r7, #20]
 8002f94:	f7ff ff26 	bl	8002de4 <prvUnlockQueue>
 8002f98:	bf00      	nop
 8002f9a:	3718      	adds	r7, #24
 8002f9c:	46bd      	mov	sp, r7
 8002f9e:	bd80      	pop	{r7, pc}

08002fa0 <xTaskCreateStatic>:
 8002fa0:	b580      	push	{r7, lr}
 8002fa2:	b08e      	sub	sp, #56	; 0x38
 8002fa4:	af04      	add	r7, sp, #16
 8002fa6:	60f8      	str	r0, [r7, #12]
 8002fa8:	60b9      	str	r1, [r7, #8]
 8002faa:	607a      	str	r2, [r7, #4]
 8002fac:	603b      	str	r3, [r7, #0]
 8002fae:	6b7b      	ldr	r3, [r7, #52]	; 0x34
 8002fb0:	2b00      	cmp	r3, #0
 8002fb2:	d10a      	bne.n	8002fca <xTaskCreateStatic+0x2a>
 8002fb4:	f04f 0350 	mov.w	r3, #80	; 0x50
 8002fb8:	f383 8811 	msr	BASEPRI, r3
 8002fbc:	f3bf 8f6f 	isb	sy
 8002fc0:	f3bf 8f4f 	dsb	sy
 8002fc4:	623b      	str	r3, [r7, #32]
 8002fc6:	bf00      	nop
 8002fc8:	e7fe      	b.n	8002fc8 <xTaskCreateStatic+0x28>
 8002fca:	6bbb      	ldr	r3, [r7, #56]	; 0x38
 8002fcc:	2b00      	cmp	r3, #0
 8002fce:	d10a      	bne.n	8002fe6 <xTaskCreateStatic+0x46>
 8002fd0:	f04f 0350 	mov.w	r3, #80	; 0x50
 8002fd4:	f383 8811 	msr	BASEPRI, r3
 8002fd8:	f3bf 8f6f 	isb	sy
 8002fdc:	f3bf 8f4f 	dsb	sy
 8002fe0:	61fb      	str	r3, [r7, #28]
 8002fe2:	bf00      	nop
 8002fe4:	e7fe      	b.n	8002fe4 <xTaskCreateStatic+0x44>
 8002fe6:	235c      	movs	r3, #92	; 0x5c
 8002fe8:	613b      	str	r3, [r7, #16]
 8002fea:	693b      	ldr	r3, [r7, #16]
 8002fec:	2b5c      	cmp	r3, #92	; 0x5c
 8002fee:	d00a      	beq.n	8003006 <xTaskCreateStatic+0x66>
 8002ff0:	f04f 0350 	mov.w	r3, #80	; 0x50
 8002ff4:	f383 8811 	msr	BASEPRI, r3
 8002ff8:	f3bf 8f6f 	isb	sy
 8002ffc:	f3bf 8f4f 	dsb	sy
 8003000:	61bb      	str	r3, [r7, #24]
 8003002:	bf00      	nop
 8003004:	e7fe      	b.n	8003004 <xTaskCreateStatic+0x64>
 8003006:	693b      	ldr	r3, [r7, #16]
 8003008:	6bbb      	ldr	r3, [r7, #56]	; 0x38
 800300a:	2b00      	cmp	r3, #0
 800300c:	d01e      	beq.n	800304c <xTaskCreateStatic+0xac>
 800300e:	6b7b      	ldr	r3, [r7, #52]	; 0x34
 8003010:	2b00      	cmp	r3, #0
 8003012:	d01b      	beq.n	800304c <xTaskCreateStatic+0xac>
 8003014:	6bbb      	ldr	r3, [r7, #56]	; 0x38
 8003016:	627b      	str	r3, [r7, #36]	; 0x24
 8003018:	6a7b      	ldr	r3, [r7, #36]	; 0x24
 800301a:	6b7a      	ldr	r2, [r7, #52]	; 0x34
 800301c:	631a      	str	r2, [r3, #48]	; 0x30
 800301e:	6a7b      	ldr	r3, [r7, #36]	; 0x24
 8003020:	2202      	movs	r2, #2
 8003022:	f883 2059 	strb.w	r2, [r3, #89]	; 0x59
 8003026:	2300      	movs	r3, #0
 8003028:	9303      	str	r3, [sp, #12]
 800302a:	6a7b      	ldr	r3, [r7, #36]	; 0x24
 800302c:	9302      	str	r3, [sp, #8]
 800302e:	f107 0314 	add.w	r3, r7, #20
 8003032:	9301      	str	r3, [sp, #4]
 8003034:	6b3b      	ldr	r3, [r7, #48]	; 0x30
 8003036:	9300      	str	r3, [sp, #0]
 8003038:	683b      	ldr	r3, [r7, #0]
 800303a:	687a      	ldr	r2, [r7, #4]
 800303c:	68b9      	ldr	r1, [r7, #8]
 800303e:	68f8      	ldr	r0, [r7, #12]
 8003040:	f000 f850 	bl	80030e4 <prvInitialiseNewTask>
 8003044:	6a78      	ldr	r0, [r7, #36]	; 0x24
 8003046:	f000 f8dd 	bl	8003204 <prvAddNewTaskToReadyList>
 800304a:	e001      	b.n	8003050 <xTaskCreateStatic+0xb0>
 800304c:	2300      	movs	r3, #0
 800304e:	617b      	str	r3, [r7, #20]
 8003050:	697b      	ldr	r3, [r7, #20]
 8003052:	4618      	mov	r0, r3
 8003054:	3728      	adds	r7, #40	; 0x28
 8003056:	46bd      	mov	sp, r7
 8003058:	bd80      	pop	{r7, pc}

0800305a <xTaskCreate>:
 800305a:	b580      	push	{r7, lr}
 800305c:	b08c      	sub	sp, #48	; 0x30
 800305e:	af04      	add	r7, sp, #16
 8003060:	60f8      	str	r0, [r7, #12]
 8003062:	60b9      	str	r1, [r7, #8]
 8003064:	603b      	str	r3, [r7, #0]
 8003066:	4613      	mov	r3, r2
 8003068:	80fb      	strh	r3, [r7, #6]
 800306a:	88fb      	ldrh	r3, [r7, #6]
 800306c:	009b      	lsls	r3, r3, #2
 800306e:	4618      	mov	r0, r3
 8003070:	f001 fbfa 	bl	8004868 <pvPortMalloc>
 8003074:	6178      	str	r0, [r7, #20]
 8003076:	697b      	ldr	r3, [r7, #20]
 8003078:	2b00      	cmp	r3, #0
 800307a:	d00e      	beq.n	800309a <xTaskCreate+0x40>
 800307c:	205c      	movs	r0, #92	; 0x5c
 800307e:	f001 fbf3 	bl	8004868 <pvPortMalloc>
 8003082:	61f8      	str	r0, [r7, #28]
 8003084:	69fb      	ldr	r3, [r7, #28]
 8003086:	2b00      	cmp	r3, #0
 8003088:	d003      	beq.n	8003092 <xTaskCreate+0x38>
 800308a:	69fb      	ldr	r3, [r7, #28]
 800308c:	697a      	ldr	r2, [r7, #20]
 800308e:	631a      	str	r2, [r3, #48]	; 0x30
 8003090:	e005      	b.n	800309e <xTaskCreate+0x44>
 8003092:	6978      	ldr	r0, [r7, #20]
 8003094:	f001 fcb4 	bl	8004a00 <vPortFree>
 8003098:	e001      	b.n	800309e <xTaskCreate+0x44>
 800309a:	2300      	movs	r3, #0
 800309c:	61fb      	str	r3, [r7, #28]
 800309e:	69fb      	ldr	r3, [r7, #28]
 80030a0:	2b00      	cmp	r3, #0
 80030a2:	d017      	beq.n	80030d4 <xTaskCreate+0x7a>
 80030a4:	69fb      	ldr	r3, [r7, #28]
 80030a6:	2200      	movs	r2, #0
 80030a8:	f883 2059 	strb.w	r2, [r3, #89]	; 0x59
 80030ac:	88fa      	ldrh	r2, [r7, #6]
 80030ae:	2300      	movs	r3, #0
 80030b0:	9303      	str	r3, [sp, #12]
 80030b2:	69fb      	ldr	r3, [r7, #28]
 80030b4:	9302      	str	r3, [sp, #8]
 80030b6:	6afb      	ldr	r3, [r7, #44]	; 0x2c
 80030b8:	9301      	str	r3, [sp, #4]
 80030ba:	6abb      	ldr	r3, [r7, #40]	; 0x28
 80030bc:	9300      	str	r3, [sp, #0]
 80030be:	683b      	ldr	r3, [r7, #0]
 80030c0:	68b9      	ldr	r1, [r7, #8]
 80030c2:	68f8      	ldr	r0, [r7, #12]
 80030c4:	f000 f80e 	bl	80030e4 <prvInitialiseNewTask>
 80030c8:	69f8      	ldr	r0, [r7, #28]
 80030ca:	f000 f89b 	bl	8003204 <prvAddNewTaskToReadyList>
 80030ce:	2301      	movs	r3, #1
 80030d0:	61bb      	str	r3, [r7, #24]
 80030d2:	e002      	b.n	80030da <xTaskCreate+0x80>
 80030d4:	f04f 33ff 	mov.w	r3, #4294967295
 80030d8:	61bb      	str	r3, [r7, #24]
 80030da:	69bb      	ldr	r3, [r7, #24]
 80030dc:	4618      	mov	r0, r3
 80030de:	3720      	adds	r7, #32
 80030e0:	46bd      	mov	sp, r7
 80030e2:	bd80      	pop	{r7, pc}

080030e4 <prvInitialiseNewTask>:
 80030e4:	b580      	push	{r7, lr}
 80030e6:	b088      	sub	sp, #32
 80030e8:	af00      	add	r7, sp, #0
 80030ea:	60f8      	str	r0, [r7, #12]
 80030ec:	60b9      	str	r1, [r7, #8]
 80030ee:	607a      	str	r2, [r7, #4]
 80030f0:	603b      	str	r3, [r7, #0]
 80030f2:	6b3b      	ldr	r3, [r7, #48]	; 0x30
 80030f4:	6b18      	ldr	r0, [r3, #48]	; 0x30
 80030f6:	687b      	ldr	r3, [r7, #4]
 80030f8:	009b      	lsls	r3, r3, #2
 80030fa:	461a      	mov	r2, r3
 80030fc:	21a5      	movs	r1, #165	; 0xa5
 80030fe:	f001 fdcf 	bl	8004ca0 <memset>
 8003102:	6b3b      	ldr	r3, [r7, #48]	; 0x30
 8003104:	6b1a      	ldr	r2, [r3, #48]	; 0x30
 8003106:	687b      	ldr	r3, [r7, #4]
 8003108:	f103 4380 	add.w	r3, r3, #1073741824	; 0x40000000
 800310c:	3b01      	subs	r3, #1
 800310e:	009b      	lsls	r3, r3, #2
 8003110:	4413      	add	r3, r2
 8003112:	61bb      	str	r3, [r7, #24]
 8003114:	69bb      	ldr	r3, [r7, #24]
 8003116:	f023 0307 	bic.w	r3, r3, #7
 800311a:	61bb      	str	r3, [r7, #24]
 800311c:	69bb      	ldr	r3, [r7, #24]
 800311e:	f003 0307 	and.w	r3, r3, #7
 8003122:	2b00      	cmp	r3, #0
 8003124:	d00a      	beq.n	800313c <prvInitialiseNewTask+0x58>
 8003126:	f04f 0350 	mov.w	r3, #80	; 0x50
 800312a:	f383 8811 	msr	BASEPRI, r3
 800312e:	f3bf 8f6f 	isb	sy
 8003132:	f3bf 8f4f 	dsb	sy
 8003136:	617b      	str	r3, [r7, #20]
 8003138:	bf00      	nop
 800313a:	e7fe      	b.n	800313a <prvInitialiseNewTask+0x56>
 800313c:	68bb      	ldr	r3, [r7, #8]
 800313e:	2b00      	cmp	r3, #0
 8003140:	d01f      	beq.n	8003182 <prvInitialiseNewTask+0x9e>
 8003142:	2300      	movs	r3, #0
 8003144:	61fb      	str	r3, [r7, #28]
 8003146:	e012      	b.n	800316e <prvInitialiseNewTask+0x8a>
 8003148:	68ba      	ldr	r2, [r7, #8]
 800314a:	69fb      	ldr	r3, [r7, #28]
 800314c:	4413      	add	r3, r2
 800314e:	7819      	ldrb	r1, [r3, #0]
 8003150:	6b3a      	ldr	r2, [r7, #48]	; 0x30
 8003152:	69fb      	ldr	r3, [r7, #28]
 8003154:	4413      	add	r3, r2
 8003156:	3334      	adds	r3, #52	; 0x34
 8003158:	460a      	mov	r2, r1
 800315a:	701a      	strb	r2, [r3, #0]
 800315c:	68ba      	ldr	r2, [r7, #8]
 800315e:	69fb      	ldr	r3, [r7, #28]
 8003160:	4413      	add	r3, r2
 8003162:	781b      	ldrb	r3, [r3, #0]
 8003164:	2b00      	cmp	r3, #0
 8003166:	d006      	beq.n	8003176 <prvInitialiseNewTask+0x92>
 8003168:	69fb      	ldr	r3, [r7, #28]
 800316a:	3301      	adds	r3, #1
 800316c:	61fb      	str	r3, [r7, #28]
 800316e:	69fb      	ldr	r3, [r7, #28]
 8003170:	2b0f      	cmp	r3, #15
 8003172:	d9e9      	bls.n	8003148 <prvInitialiseNewTask+0x64>
 8003174:	e000      	b.n	8003178 <prvInitialiseNewTask+0x94>
 8003176:	bf00      	nop
 8003178:	6b3b      	ldr	r3, [r7, #48]	; 0x30
 800317a:	2200      	movs	r2, #0
 800317c:	f883 2043 	strb.w	r2, [r3, #67]	; 0x43
 8003180:	e003      	b.n	800318a <prvInitialiseNewTask+0xa6>
 8003182:	6b3b      	ldr	r3, [r7, #48]	; 0x30
 8003184:	2200      	movs	r2, #0
 8003186:	f883 2034 	strb.w	r2, [r3, #52]	; 0x34
 800318a:	6abb      	ldr	r3, [r7, #40]	; 0x28
 800318c:	2b37      	cmp	r3, #55	; 0x37
 800318e:	d901      	bls.n	8003194 <prvInitialiseNewTask+0xb0>
 8003190:	2337      	movs	r3, #55	; 0x37
 8003192:	62bb      	str	r3, [r7, #40]	; 0x28
 8003194:	6b3b      	ldr	r3, [r7, #48]	; 0x30
 8003196:	6aba      	ldr	r2, [r7, #40]	; 0x28
 8003198:	62da      	str	r2, [r3, #44]	; 0x2c
 800319a:	6b3b      	ldr	r3, [r7, #48]	; 0x30
 800319c:	6aba      	ldr	r2, [r7, #40]	; 0x28
 800319e:	64da      	str	r2, [r3, #76]	; 0x4c
 80031a0:	6b3b      	ldr	r3, [r7, #48]	; 0x30
 80031a2:	2200      	movs	r2, #0
 80031a4:	651a      	str	r2, [r3, #80]	; 0x50
 80031a6:	6b3b      	ldr	r3, [r7, #48]	; 0x30
 80031a8:	3304      	adds	r3, #4
 80031aa:	4618      	mov	r0, r3
 80031ac:	f7ff f978 	bl	80024a0 <vListInitialiseItem>
 80031b0:	6b3b      	ldr	r3, [r7, #48]	; 0x30
 80031b2:	3318      	adds	r3, #24
 80031b4:	4618      	mov	r0, r3
 80031b6:	f7ff f973 	bl	80024a0 <vListInitialiseItem>
 80031ba:	6b3b      	ldr	r3, [r7, #48]	; 0x30
 80031bc:	6b3a      	ldr	r2, [r7, #48]	; 0x30
 80031be:	611a      	str	r2, [r3, #16]
 80031c0:	6abb      	ldr	r3, [r7, #40]	; 0x28
 80031c2:	f1c3 0238 	rsb	r2, r3, #56	; 0x38
 80031c6:	6b3b      	ldr	r3, [r7, #48]	; 0x30
 80031c8:	619a      	str	r2, [r3, #24]
 80031ca:	6b3b      	ldr	r3, [r7, #48]	; 0x30
 80031cc:	6b3a      	ldr	r2, [r7, #48]	; 0x30
 80031ce:	625a      	str	r2, [r3, #36]	; 0x24
 80031d0:	6b3b      	ldr	r3, [r7, #48]	; 0x30
 80031d2:	2200      	movs	r2, #0
 80031d4:	655a      	str	r2, [r3, #84]	; 0x54
 80031d6:	6b3b      	ldr	r3, [r7, #48]	; 0x30
 80031d8:	2200      	movs	r2, #0
 80031da:	f883 2058 	strb.w	r2, [r3, #88]	; 0x58
 80031de:	683a      	ldr	r2, [r7, #0]
 80031e0:	68f9      	ldr	r1, [r7, #12]
 80031e2:	69b8      	ldr	r0, [r7, #24]
 80031e4:	f001 f8f4 	bl	80043d0 <pxPortInitialiseStack>
 80031e8:	4602      	mov	r2, r0
 80031ea:	6b3b      	ldr	r3, [r7, #48]	; 0x30
 80031ec:	601a      	str	r2, [r3, #0]
 80031ee:	6afb      	ldr	r3, [r7, #44]	; 0x2c
 80031f0:	2b00      	cmp	r3, #0
 80031f2:	d002      	beq.n	80031fa <prvInitialiseNewTask+0x116>
 80031f4:	6afb      	ldr	r3, [r7, #44]	; 0x2c
 80031f6:	6b3a      	ldr	r2, [r7, #48]	; 0x30
 80031f8:	601a      	str	r2, [r3, #0]
 80031fa:	bf00      	nop
 80031fc:	3720      	adds	r7, #32
 80031fe:	46bd      	mov	sp, r7
 8003200:	bd80      	pop	{r7, pc}
	...

08003204 <prvAddNewTaskToReadyList>:
 8003204:	b580      	push	{r7, lr}
 8003206:	b082      	sub	sp, #8
 8003208:	af00      	add	r7, sp, #0
 800320a:	6078      	str	r0, [r7, #4]
 800320c:	f001 fa0a 	bl	8004624 <vPortEnterCritical>
 8003210:	4b2d      	ldr	r3, [pc, #180]	; (80032c8 <prvAddNewTaskToReadyList+0xc4>)
 8003212:	681b      	ldr	r3, [r3, #0]
 8003214:	3301      	adds	r3, #1
 8003216:	4a2c      	ldr	r2, [pc, #176]	; (80032c8 <prvAddNewTaskToReadyList+0xc4>)
 8003218:	6013      	str	r3, [r2, #0]
 800321a:	4b2c      	ldr	r3, [pc, #176]	; (80032cc <prvAddNewTaskToReadyList+0xc8>)
 800321c:	681b      	ldr	r3, [r3, #0]
 800321e:	2b00      	cmp	r3, #0
 8003220:	d109      	bne.n	8003236 <prvAddNewTaskToReadyList+0x32>
 8003222:	4a2a      	ldr	r2, [pc, #168]	; (80032cc <prvAddNewTaskToReadyList+0xc8>)
 8003224:	687b      	ldr	r3, [r7, #4]
 8003226:	6013      	str	r3, [r2, #0]
 8003228:	4b27      	ldr	r3, [pc, #156]	; (80032c8 <prvAddNewTaskToReadyList+0xc4>)
 800322a:	681b      	ldr	r3, [r3, #0]
 800322c:	2b01      	cmp	r3, #1
 800322e:	d110      	bne.n	8003252 <prvAddNewTaskToReadyList+0x4e>
 8003230:	f000 fbe2 	bl	80039f8 <prvInitialiseTaskLists>
 8003234:	e00d      	b.n	8003252 <prvAddNewTaskToReadyList+0x4e>
 8003236:	4b26      	ldr	r3, [pc, #152]	; (80032d0 <prvAddNewTaskToReadyList+0xcc>)
 8003238:	681b      	ldr	r3, [r3, #0]
 800323a:	2b00      	cmp	r3, #0
 800323c:	d109      	bne.n	8003252 <prvAddNewTaskToReadyList+0x4e>
 800323e:	4b23      	ldr	r3, [pc, #140]	; (80032cc <prvAddNewTaskToReadyList+0xc8>)
 8003240:	681b      	ldr	r3, [r3, #0]
 8003242:	6ada      	ldr	r2, [r3, #44]	; 0x2c
 8003244:	687b      	ldr	r3, [r7, #4]
 8003246:	6adb      	ldr	r3, [r3, #44]	; 0x2c
 8003248:	429a      	cmp	r2, r3
 800324a:	d802      	bhi.n	8003252 <prvAddNewTaskToReadyList+0x4e>
 800324c:	4a1f      	ldr	r2, [pc, #124]	; (80032cc <prvAddNewTaskToReadyList+0xc8>)
 800324e:	687b      	ldr	r3, [r7, #4]
 8003250:	6013      	str	r3, [r2, #0]
 8003252:	4b20      	ldr	r3, [pc, #128]	; (80032d4 <prvAddNewTaskToReadyList+0xd0>)
 8003254:	681b      	ldr	r3, [r3, #0]
 8003256:	3301      	adds	r3, #1
 8003258:	4a1e      	ldr	r2, [pc, #120]	; (80032d4 <prvAddNewTaskToReadyList+0xd0>)
 800325a:	6013      	str	r3, [r2, #0]
 800325c:	4b1d      	ldr	r3, [pc, #116]	; (80032d4 <prvAddNewTaskToReadyList+0xd0>)
 800325e:	681a      	ldr	r2, [r3, #0]
 8003260:	687b      	ldr	r3, [r7, #4]
 8003262:	645a      	str	r2, [r3, #68]	; 0x44
 8003264:	687b      	ldr	r3, [r7, #4]
 8003266:	6ada      	ldr	r2, [r3, #44]	; 0x2c
 8003268:	4b1b      	ldr	r3, [pc, #108]	; (80032d8 <prvAddNewTaskToReadyList+0xd4>)
 800326a:	681b      	ldr	r3, [r3, #0]
 800326c:	429a      	cmp	r2, r3
 800326e:	d903      	bls.n	8003278 <prvAddNewTaskToReadyList+0x74>
 8003270:	687b      	ldr	r3, [r7, #4]
 8003272:	6adb      	ldr	r3, [r3, #44]	; 0x2c
 8003274:	4a18      	ldr	r2, [pc, #96]	; (80032d8 <prvAddNewTaskToReadyList+0xd4>)
 8003276:	6013      	str	r3, [r2, #0]
 8003278:	687b      	ldr	r3, [r7, #4]
 800327a:	6ada      	ldr	r2, [r3, #44]	; 0x2c
 800327c:	4613      	mov	r3, r2
 800327e:	009b      	lsls	r3, r3, #2
 8003280:	4413      	add	r3, r2
 8003282:	009b      	lsls	r3, r3, #2
 8003284:	4a15      	ldr	r2, [pc, #84]	; (80032dc <prvAddNewTaskToReadyList+0xd8>)
 8003286:	441a      	add	r2, r3
 8003288:	687b      	ldr	r3, [r7, #4]
 800328a:	3304      	adds	r3, #4
 800328c:	4619      	mov	r1, r3
 800328e:	4610      	mov	r0, r2
 8003290:	f7ff f913 	bl	80024ba <vListInsertEnd>
 8003294:	f001 f9f6 	bl	8004684 <vPortExitCritical>
 8003298:	4b0d      	ldr	r3, [pc, #52]	; (80032d0 <prvAddNewTaskToReadyList+0xcc>)
 800329a:	681b      	ldr	r3, [r3, #0]
 800329c:	2b00      	cmp	r3, #0
 800329e:	d00e      	beq.n	80032be <prvAddNewTaskToReadyList+0xba>
 80032a0:	4b0a      	ldr	r3, [pc, #40]	; (80032cc <prvAddNewTaskToReadyList+0xc8>)
 80032a2:	681b      	ldr	r3, [r3, #0]
 80032a4:	6ada      	ldr	r2, [r3, #44]	; 0x2c
 80032a6:	687b      	ldr	r3, [r7, #4]
 80032a8:	6adb      	ldr	r3, [r3, #44]	; 0x2c
 80032aa:	429a      	cmp	r2, r3
 80032ac:	d207      	bcs.n	80032be <prvAddNewTaskToReadyList+0xba>
 80032ae:	4b0c      	ldr	r3, [pc, #48]	; (80032e0 <prvAddNewTaskToReadyList+0xdc>)
 80032b0:	f04f 5280 	mov.w	r2, #268435456	; 0x10000000
 80032b4:	601a      	str	r2, [r3, #0]
 80032b6:	f3bf 8f4f 	dsb	sy
 80032ba:	f3bf 8f6f 	isb	sy
 80032be:	bf00      	nop
 80032c0:	3708      	adds	r7, #8
 80032c2:	46bd      	mov	sp, r7
 80032c4:	bd80      	pop	{r7, pc}
 80032c6:	bf00      	nop
 80032c8:	20000bbc 	.word	0x20000bbc
 80032cc:	200006e8 	.word	0x200006e8
 80032d0:	20000bc8 	.word	0x20000bc8
 80032d4:	20000bd8 	.word	0x20000bd8
 80032d8:	20000bc4 	.word	0x20000bc4
 80032dc:	200006ec 	.word	0x200006ec
 80032e0:	e000ed04 	.word	0xe000ed04

080032e4 <vTaskStartScheduler>:
 80032e4:	b580      	push	{r7, lr}
 80032e6:	b08a      	sub	sp, #40	; 0x28
 80032e8:	af04      	add	r7, sp, #16
 80032ea:	2300      	movs	r3, #0
 80032ec:	60bb      	str	r3, [r7, #8]
 80032ee:	2300      	movs	r3, #0
 80032f0:	607b      	str	r3, [r7, #4]
 80032f2:	463a      	mov	r2, r7
 80032f4:	1d39      	adds	r1, r7, #4
 80032f6:	f107 0308 	add.w	r3, r7, #8
 80032fa:	4618      	mov	r0, r3
 80032fc:	f7ff f87c 	bl	80023f8 <vApplicationGetIdleTaskMemory>
 8003300:	6839      	ldr	r1, [r7, #0]
 8003302:	687b      	ldr	r3, [r7, #4]
 8003304:	68ba      	ldr	r2, [r7, #8]
 8003306:	9202      	str	r2, [sp, #8]
 8003308:	9301      	str	r3, [sp, #4]
 800330a:	2300      	movs	r3, #0
 800330c:	9300      	str	r3, [sp, #0]
 800330e:	2300      	movs	r3, #0
 8003310:	460a      	mov	r2, r1
 8003312:	4921      	ldr	r1, [pc, #132]	; (8003398 <vTaskStartScheduler+0xb4>)
 8003314:	4821      	ldr	r0, [pc, #132]	; (800339c <vTaskStartScheduler+0xb8>)
 8003316:	f7ff fe43 	bl	8002fa0 <xTaskCreateStatic>
 800331a:	4603      	mov	r3, r0
 800331c:	4a20      	ldr	r2, [pc, #128]	; (80033a0 <vTaskStartScheduler+0xbc>)
 800331e:	6013      	str	r3, [r2, #0]
 8003320:	4b1f      	ldr	r3, [pc, #124]	; (80033a0 <vTaskStartScheduler+0xbc>)
 8003322:	681b      	ldr	r3, [r3, #0]
 8003324:	2b00      	cmp	r3, #0
 8003326:	d002      	beq.n	800332e <vTaskStartScheduler+0x4a>
 8003328:	2301      	movs	r3, #1
 800332a:	617b      	str	r3, [r7, #20]
 800332c:	e001      	b.n	8003332 <vTaskStartScheduler+0x4e>
 800332e:	2300      	movs	r3, #0
 8003330:	617b      	str	r3, [r7, #20]
 8003332:	697b      	ldr	r3, [r7, #20]
 8003334:	2b01      	cmp	r3, #1
 8003336:	d102      	bne.n	800333e <vTaskStartScheduler+0x5a>
 8003338:	f000 fcfc 	bl	8003d34 <xTimerCreateTimerTask>
 800333c:	6178      	str	r0, [r7, #20]
 800333e:	697b      	ldr	r3, [r7, #20]
 8003340:	2b01      	cmp	r3, #1
 8003342:	d116      	bne.n	8003372 <vTaskStartScheduler+0x8e>
 8003344:	f04f 0350 	mov.w	r3, #80	; 0x50
 8003348:	f383 8811 	msr	BASEPRI, r3
 800334c:	f3bf 8f6f 	isb	sy
 8003350:	f3bf 8f4f 	dsb	sy
 8003354:	613b      	str	r3, [r7, #16]
 8003356:	bf00      	nop
 8003358:	4b12      	ldr	r3, [pc, #72]	; (80033a4 <vTaskStartScheduler+0xc0>)
 800335a:	f04f 32ff 	mov.w	r2, #4294967295
 800335e:	601a      	str	r2, [r3, #0]
 8003360:	4b11      	ldr	r3, [pc, #68]	; (80033a8 <vTaskStartScheduler+0xc4>)
 8003362:	2201      	movs	r2, #1
 8003364:	601a      	str	r2, [r3, #0]
 8003366:	4b11      	ldr	r3, [pc, #68]	; (80033ac <vTaskStartScheduler+0xc8>)
 8003368:	2200      	movs	r2, #0
 800336a:	601a      	str	r2, [r3, #0]
 800336c:	f001 f8b8 	bl	80044e0 <xPortStartScheduler>
 8003370:	e00e      	b.n	8003390 <vTaskStartScheduler+0xac>
 8003372:	697b      	ldr	r3, [r7, #20]
 8003374:	f1b3 3fff 	cmp.w	r3, #4294967295
 8003378:	d10a      	bne.n	8003390 <vTaskStartScheduler+0xac>
 800337a:	f04f 0350 	mov.w	r3, #80	; 0x50
 800337e:	f383 8811 	msr	BASEPRI, r3
 8003382:	f3bf 8f6f 	isb	sy
 8003386:	f3bf 8f4f 	dsb	sy
 800338a:	60fb      	str	r3, [r7, #12]
 800338c:	bf00      	nop
 800338e:	e7fe      	b.n	800338e <vTaskStartScheduler+0xaa>
 8003390:	bf00      	nop
 8003392:	3718      	adds	r7, #24
 8003394:	46bd      	mov	sp, r7
 8003396:	bd80      	pop	{r7, pc}
 8003398:	08004cf4 	.word	0x08004cf4
 800339c:	080039c9 	.word	0x080039c9
 80033a0:	20000be0 	.word	0x20000be0
 80033a4:	20000bdc 	.word	0x20000bdc
 80033a8:	20000bc8 	.word	0x20000bc8
 80033ac:	20000bc0 	.word	0x20000bc0

080033b0 <vTaskSuspendAll>:
 80033b0:	b480      	push	{r7}
 80033b2:	af00      	add	r7, sp, #0
 80033b4:	4b04      	ldr	r3, [pc, #16]	; (80033c8 <vTaskSuspendAll+0x18>)
 80033b6:	681b      	ldr	r3, [r3, #0]
 80033b8:	3301      	adds	r3, #1
 80033ba:	4a03      	ldr	r2, [pc, #12]	; (80033c8 <vTaskSuspendAll+0x18>)
 80033bc:	6013      	str	r3, [r2, #0]
 80033be:	bf00      	nop
 80033c0:	46bd      	mov	sp, r7
 80033c2:	f85d 7b04 	ldr.w	r7, [sp], #4
 80033c6:	4770      	bx	lr
 80033c8:	20000be4 	.word	0x20000be4

080033cc <xTaskResumeAll>:
 80033cc:	b580      	push	{r7, lr}
 80033ce:	b084      	sub	sp, #16
 80033d0:	af00      	add	r7, sp, #0
 80033d2:	2300      	movs	r3, #0
 80033d4:	60fb      	str	r3, [r7, #12]
 80033d6:	2300      	movs	r3, #0
 80033d8:	60bb      	str	r3, [r7, #8]
 80033da:	4b42      	ldr	r3, [pc, #264]	; (80034e4 <xTaskResumeAll+0x118>)
 80033dc:	681b      	ldr	r3, [r3, #0]
 80033de:	2b00      	cmp	r3, #0
 80033e0:	d10a      	bne.n	80033f8 <xTaskResumeAll+0x2c>
 80033e2:	f04f 0350 	mov.w	r3, #80	; 0x50
 80033e6:	f383 8811 	msr	BASEPRI, r3
 80033ea:	f3bf 8f6f 	isb	sy
 80033ee:	f3bf 8f4f 	dsb	sy
 80033f2:	603b      	str	r3, [r7, #0]
 80033f4:	bf00      	nop
 80033f6:	e7fe      	b.n	80033f6 <xTaskResumeAll+0x2a>
 80033f8:	f001 f914 	bl	8004624 <vPortEnterCritical>
 80033fc:	4b39      	ldr	r3, [pc, #228]	; (80034e4 <xTaskResumeAll+0x118>)
 80033fe:	681b      	ldr	r3, [r3, #0]
 8003400:	3b01      	subs	r3, #1
 8003402:	4a38      	ldr	r2, [pc, #224]	; (80034e4 <xTaskResumeAll+0x118>)
 8003404:	6013      	str	r3, [r2, #0]
 8003406:	4b37      	ldr	r3, [pc, #220]	; (80034e4 <xTaskResumeAll+0x118>)
 8003408:	681b      	ldr	r3, [r3, #0]
 800340a:	2b00      	cmp	r3, #0
 800340c:	d162      	bne.n	80034d4 <xTaskResumeAll+0x108>
 800340e:	4b36      	ldr	r3, [pc, #216]	; (80034e8 <xTaskResumeAll+0x11c>)
 8003410:	681b      	ldr	r3, [r3, #0]
 8003412:	2b00      	cmp	r3, #0
 8003414:	d05e      	beq.n	80034d4 <xTaskResumeAll+0x108>
 8003416:	e02f      	b.n	8003478 <xTaskResumeAll+0xac>
 8003418:	4b34      	ldr	r3, [pc, #208]	; (80034ec <xTaskResumeAll+0x120>)
 800341a:	68db      	ldr	r3, [r3, #12]
 800341c:	68db      	ldr	r3, [r3, #12]
 800341e:	60fb      	str	r3, [r7, #12]
 8003420:	68fb      	ldr	r3, [r7, #12]
 8003422:	3318      	adds	r3, #24
 8003424:	4618      	mov	r0, r3
 8003426:	f7ff f8a5 	bl	8002574 <uxListRemove>
 800342a:	68fb      	ldr	r3, [r7, #12]
 800342c:	3304      	adds	r3, #4
 800342e:	4618      	mov	r0, r3
 8003430:	f7ff f8a0 	bl	8002574 <uxListRemove>
 8003434:	68fb      	ldr	r3, [r7, #12]
 8003436:	6ada      	ldr	r2, [r3, #44]	; 0x2c
 8003438:	4b2d      	ldr	r3, [pc, #180]	; (80034f0 <xTaskResumeAll+0x124>)
 800343a:	681b      	ldr	r3, [r3, #0]
 800343c:	429a      	cmp	r2, r3
 800343e:	d903      	bls.n	8003448 <xTaskResumeAll+0x7c>
 8003440:	68fb      	ldr	r3, [r7, #12]
 8003442:	6adb      	ldr	r3, [r3, #44]	; 0x2c
 8003444:	4a2a      	ldr	r2, [pc, #168]	; (80034f0 <xTaskResumeAll+0x124>)
 8003446:	6013      	str	r3, [r2, #0]
 8003448:	68fb      	ldr	r3, [r7, #12]
 800344a:	6ada      	ldr	r2, [r3, #44]	; 0x2c
 800344c:	4613      	mov	r3, r2
 800344e:	009b      	lsls	r3, r3, #2
 8003450:	4413      	add	r3, r2
 8003452:	009b      	lsls	r3, r3, #2
 8003454:	4a27      	ldr	r2, [pc, #156]	; (80034f4 <xTaskResumeAll+0x128>)
 8003456:	441a      	add	r2, r3
 8003458:	68fb      	ldr	r3, [r7, #12]
 800345a:	3304      	adds	r3, #4
 800345c:	4619      	mov	r1, r3
 800345e:	4610      	mov	r0, r2
 8003460:	f7ff f82b 	bl	80024ba <vListInsertEnd>
 8003464:	68fb      	ldr	r3, [r7, #12]
 8003466:	6ada      	ldr	r2, [r3, #44]	; 0x2c
 8003468:	4b23      	ldr	r3, [pc, #140]	; (80034f8 <xTaskResumeAll+0x12c>)
 800346a:	681b      	ldr	r3, [r3, #0]
 800346c:	6adb      	ldr	r3, [r3, #44]	; 0x2c
 800346e:	429a      	cmp	r2, r3
 8003470:	d302      	bcc.n	8003478 <xTaskResumeAll+0xac>
 8003472:	4b22      	ldr	r3, [pc, #136]	; (80034fc <xTaskResumeAll+0x130>)
 8003474:	2201      	movs	r2, #1
 8003476:	601a      	str	r2, [r3, #0]
 8003478:	4b1c      	ldr	r3, [pc, #112]	; (80034ec <xTaskResumeAll+0x120>)
 800347a:	681b      	ldr	r3, [r3, #0]
 800347c:	2b00      	cmp	r3, #0
 800347e:	d1cb      	bne.n	8003418 <xTaskResumeAll+0x4c>
 8003480:	68fb      	ldr	r3, [r7, #12]
 8003482:	2b00      	cmp	r3, #0
 8003484:	d001      	beq.n	800348a <xTaskResumeAll+0xbe>
 8003486:	f000 fb55 	bl	8003b34 <prvResetNextTaskUnblockTime>
 800348a:	4b1d      	ldr	r3, [pc, #116]	; (8003500 <xTaskResumeAll+0x134>)
 800348c:	681b      	ldr	r3, [r3, #0]
 800348e:	607b      	str	r3, [r7, #4]
 8003490:	687b      	ldr	r3, [r7, #4]
 8003492:	2b00      	cmp	r3, #0
 8003494:	d010      	beq.n	80034b8 <xTaskResumeAll+0xec>
 8003496:	f000 f847 	bl	8003528 <xTaskIncrementTick>
 800349a:	4603      	mov	r3, r0
 800349c:	2b00      	cmp	r3, #0
 800349e:	d002      	beq.n	80034a6 <xTaskResumeAll+0xda>
 80034a0:	4b16      	ldr	r3, [pc, #88]	; (80034fc <xTaskResumeAll+0x130>)
 80034a2:	2201      	movs	r2, #1
 80034a4:	601a      	str	r2, [r3, #0]
 80034a6:	687b      	ldr	r3, [r7, #4]
 80034a8:	3b01      	subs	r3, #1
 80034aa:	607b      	str	r3, [r7, #4]
 80034ac:	687b      	ldr	r3, [r7, #4]
 80034ae:	2b00      	cmp	r3, #0
 80034b0:	d1f1      	bne.n	8003496 <xTaskResumeAll+0xca>
 80034b2:	4b13      	ldr	r3, [pc, #76]	; (8003500 <xTaskResumeAll+0x134>)
 80034b4:	2200      	movs	r2, #0
 80034b6:	601a      	str	r2, [r3, #0]
 80034b8:	4b10      	ldr	r3, [pc, #64]	; (80034fc <xTaskResumeAll+0x130>)
 80034ba:	681b      	ldr	r3, [r3, #0]
 80034bc:	2b00      	cmp	r3, #0
 80034be:	d009      	beq.n	80034d4 <xTaskResumeAll+0x108>
 80034c0:	2301      	movs	r3, #1
 80034c2:	60bb      	str	r3, [r7, #8]
 80034c4:	4b0f      	ldr	r3, [pc, #60]	; (8003504 <xTaskResumeAll+0x138>)
 80034c6:	f04f 5280 	mov.w	r2, #268435456	; 0x10000000
 80034ca:	601a      	str	r2, [r3, #0]
 80034cc:	f3bf 8f4f 	dsb	sy
 80034d0:	f3bf 8f6f 	isb	sy
 80034d4:	f001 f8d6 	bl	8004684 <vPortExitCritical>
 80034d8:	68bb      	ldr	r3, [r7, #8]
 80034da:	4618      	mov	r0, r3
 80034dc:	3710      	adds	r7, #16
 80034de:	46bd      	mov	sp, r7
 80034e0:	bd80      	pop	{r7, pc}
 80034e2:	bf00      	nop
 80034e4:	20000be4 	.word	0x20000be4
 80034e8:	20000bbc 	.word	0x20000bbc
 80034ec:	20000b7c 	.word	0x20000b7c
 80034f0:	20000bc4 	.word	0x20000bc4
 80034f4:	200006ec 	.word	0x200006ec
 80034f8:	200006e8 	.word	0x200006e8
 80034fc:	20000bd0 	.word	0x20000bd0
 8003500:	20000bcc 	.word	0x20000bcc
 8003504:	e000ed04 	.word	0xe000ed04

08003508 <xTaskGetTickCount>:
 8003508:	b480      	push	{r7}
 800350a:	b083      	sub	sp, #12
 800350c:	af00      	add	r7, sp, #0
 800350e:	4b05      	ldr	r3, [pc, #20]	; (8003524 <xTaskGetTickCount+0x1c>)
 8003510:	681b      	ldr	r3, [r3, #0]
 8003512:	607b      	str	r3, [r7, #4]
 8003514:	687b      	ldr	r3, [r7, #4]
 8003516:	4618      	mov	r0, r3
 8003518:	370c      	adds	r7, #12
 800351a:	46bd      	mov	sp, r7
 800351c:	f85d 7b04 	ldr.w	r7, [sp], #4
 8003520:	4770      	bx	lr
 8003522:	bf00      	nop
 8003524:	20000bc0 	.word	0x20000bc0

08003528 <xTaskIncrementTick>:
 8003528:	b580      	push	{r7, lr}
 800352a:	b086      	sub	sp, #24
 800352c:	af00      	add	r7, sp, #0
 800352e:	2300      	movs	r3, #0
 8003530:	617b      	str	r3, [r7, #20]
 8003532:	4b4f      	ldr	r3, [pc, #316]	; (8003670 <xTaskIncrementTick+0x148>)
 8003534:	681b      	ldr	r3, [r3, #0]
 8003536:	2b00      	cmp	r3, #0
 8003538:	f040 808f 	bne.w	800365a <xTaskIncrementTick+0x132>
 800353c:	4b4d      	ldr	r3, [pc, #308]	; (8003674 <xTaskIncrementTick+0x14c>)
 800353e:	681b      	ldr	r3, [r3, #0]
 8003540:	3301      	adds	r3, #1
 8003542:	613b      	str	r3, [r7, #16]
 8003544:	4a4b      	ldr	r2, [pc, #300]	; (8003674 <xTaskIncrementTick+0x14c>)
 8003546:	693b      	ldr	r3, [r7, #16]
 8003548:	6013      	str	r3, [r2, #0]
 800354a:	693b      	ldr	r3, [r7, #16]
 800354c:	2b00      	cmp	r3, #0
 800354e:	d120      	bne.n	8003592 <xTaskIncrementTick+0x6a>
 8003550:	4b49      	ldr	r3, [pc, #292]	; (8003678 <xTaskIncrementTick+0x150>)
 8003552:	681b      	ldr	r3, [r3, #0]
 8003554:	681b      	ldr	r3, [r3, #0]
 8003556:	2b00      	cmp	r3, #0
 8003558:	d00a      	beq.n	8003570 <xTaskIncrementTick+0x48>
 800355a:	f04f 0350 	mov.w	r3, #80	; 0x50
 800355e:	f383 8811 	msr	BASEPRI, r3
 8003562:	f3bf 8f6f 	isb	sy
 8003566:	f3bf 8f4f 	dsb	sy
 800356a:	603b      	str	r3, [r7, #0]
 800356c:	bf00      	nop
 800356e:	e7fe      	b.n	800356e <xTaskIncrementTick+0x46>
 8003570:	4b41      	ldr	r3, [pc, #260]	; (8003678 <xTaskIncrementTick+0x150>)
 8003572:	681b      	ldr	r3, [r3, #0]
 8003574:	60fb      	str	r3, [r7, #12]
 8003576:	4b41      	ldr	r3, [pc, #260]	; (800367c <xTaskIncrementTick+0x154>)
 8003578:	681b      	ldr	r3, [r3, #0]
 800357a:	4a3f      	ldr	r2, [pc, #252]	; (8003678 <xTaskIncrementTick+0x150>)
 800357c:	6013      	str	r3, [r2, #0]
 800357e:	4a3f      	ldr	r2, [pc, #252]	; (800367c <xTaskIncrementTick+0x154>)
 8003580:	68fb      	ldr	r3, [r7, #12]
 8003582:	6013      	str	r3, [r2, #0]
 8003584:	4b3e      	ldr	r3, [pc, #248]	; (8003680 <xTaskIncrementTick+0x158>)
 8003586:	681b      	ldr	r3, [r3, #0]
 8003588:	3301      	adds	r3, #1
 800358a:	4a3d      	ldr	r2, [pc, #244]	; (8003680 <xTaskIncrementTick+0x158>)
 800358c:	6013      	str	r3, [r2, #0]
 800358e:	f000 fad1 	bl	8003b34 <prvResetNextTaskUnblockTime>
 8003592:	4b3c      	ldr	r3, [pc, #240]	; (8003684 <xTaskIncrementTick+0x15c>)
 8003594:	681b      	ldr	r3, [r3, #0]
 8003596:	693a      	ldr	r2, [r7, #16]
 8003598:	429a      	cmp	r2, r3
 800359a:	d349      	bcc.n	8003630 <xTaskIncrementTick+0x108>
 800359c:	4b36      	ldr	r3, [pc, #216]	; (8003678 <xTaskIncrementTick+0x150>)
 800359e:	681b      	ldr	r3, [r3, #0]
 80035a0:	681b      	ldr	r3, [r3, #0]
 80035a2:	2b00      	cmp	r3, #0
 80035a4:	d104      	bne.n	80035b0 <xTaskIncrementTick+0x88>
 80035a6:	4b37      	ldr	r3, [pc, #220]	; (8003684 <xTaskIncrementTick+0x15c>)
 80035a8:	f04f 32ff 	mov.w	r2, #4294967295
 80035ac:	601a      	str	r2, [r3, #0]
 80035ae:	e03f      	b.n	8003630 <xTaskIncrementTick+0x108>
 80035b0:	4b31      	ldr	r3, [pc, #196]	; (8003678 <xTaskIncrementTick+0x150>)
 80035b2:	681b      	ldr	r3, [r3, #0]
 80035b4:	68db      	ldr	r3, [r3, #12]
 80035b6:	68db      	ldr	r3, [r3, #12]
 80035b8:	60bb      	str	r3, [r7, #8]
 80035ba:	68bb      	ldr	r3, [r7, #8]
 80035bc:	685b      	ldr	r3, [r3, #4]
 80035be:	607b      	str	r3, [r7, #4]
 80035c0:	693a      	ldr	r2, [r7, #16]
 80035c2:	687b      	ldr	r3, [r7, #4]
 80035c4:	429a      	cmp	r2, r3
 80035c6:	d203      	bcs.n	80035d0 <xTaskIncrementTick+0xa8>
 80035c8:	4a2e      	ldr	r2, [pc, #184]	; (8003684 <xTaskIncrementTick+0x15c>)
 80035ca:	687b      	ldr	r3, [r7, #4]
 80035cc:	6013      	str	r3, [r2, #0]
 80035ce:	e02f      	b.n	8003630 <xTaskIncrementTick+0x108>
 80035d0:	68bb      	ldr	r3, [r7, #8]
 80035d2:	3304      	adds	r3, #4
 80035d4:	4618      	mov	r0, r3
 80035d6:	f7fe ffcd 	bl	8002574 <uxListRemove>
 80035da:	68bb      	ldr	r3, [r7, #8]
 80035dc:	6a9b      	ldr	r3, [r3, #40]	; 0x28
 80035de:	2b00      	cmp	r3, #0
 80035e0:	d004      	beq.n	80035ec <xTaskIncrementTick+0xc4>
 80035e2:	68bb      	ldr	r3, [r7, #8]
 80035e4:	3318      	adds	r3, #24
 80035e6:	4618      	mov	r0, r3
 80035e8:	f7fe ffc4 	bl	8002574 <uxListRemove>
 80035ec:	68bb      	ldr	r3, [r7, #8]
 80035ee:	6ada      	ldr	r2, [r3, #44]	; 0x2c
 80035f0:	4b25      	ldr	r3, [pc, #148]	; (8003688 <xTaskIncrementTick+0x160>)
 80035f2:	681b      	ldr	r3, [r3, #0]
 80035f4:	429a      	cmp	r2, r3
 80035f6:	d903      	bls.n	8003600 <xTaskIncrementTick+0xd8>
 80035f8:	68bb      	ldr	r3, [r7, #8]
 80035fa:	6adb      	ldr	r3, [r3, #44]	; 0x2c
 80035fc:	4a22      	ldr	r2, [pc, #136]	; (8003688 <xTaskIncrementTick+0x160>)
 80035fe:	6013      	str	r3, [r2, #0]
 8003600:	68bb      	ldr	r3, [r7, #8]
 8003602:	6ada      	ldr	r2, [r3, #44]	; 0x2c
 8003604:	4613      	mov	r3, r2
 8003606:	009b      	lsls	r3, r3, #2
 8003608:	4413      	add	r3, r2
 800360a:	009b      	lsls	r3, r3, #2
 800360c:	4a1f      	ldr	r2, [pc, #124]	; (800368c <xTaskIncrementTick+0x164>)
 800360e:	441a      	add	r2, r3
 8003610:	68bb      	ldr	r3, [r7, #8]
 8003612:	3304      	adds	r3, #4
 8003614:	4619      	mov	r1, r3
 8003616:	4610      	mov	r0, r2
 8003618:	f7fe ff4f 	bl	80024ba <vListInsertEnd>
 800361c:	68bb      	ldr	r3, [r7, #8]
 800361e:	6ada      	ldr	r2, [r3, #44]	; 0x2c
 8003620:	4b1b      	ldr	r3, [pc, #108]	; (8003690 <xTaskIncrementTick+0x168>)
 8003622:	681b      	ldr	r3, [r3, #0]
 8003624:	6adb      	ldr	r3, [r3, #44]	; 0x2c
 8003626:	429a      	cmp	r2, r3
 8003628:	d3b8      	bcc.n	800359c <xTaskIncrementTick+0x74>
 800362a:	2301      	movs	r3, #1
 800362c:	617b      	str	r3, [r7, #20]
 800362e:	e7b5      	b.n	800359c <xTaskIncrementTick+0x74>
 8003630:	4b17      	ldr	r3, [pc, #92]	; (8003690 <xTaskIncrementTick+0x168>)
 8003632:	681b      	ldr	r3, [r3, #0]
 8003634:	6ada      	ldr	r2, [r3, #44]	; 0x2c
 8003636:	4915      	ldr	r1, [pc, #84]	; (800368c <xTaskIncrementTick+0x164>)
 8003638:	4613      	mov	r3, r2
 800363a:	009b      	lsls	r3, r3, #2
 800363c:	4413      	add	r3, r2
 800363e:	009b      	lsls	r3, r3, #2
 8003640:	440b      	add	r3, r1
 8003642:	681b      	ldr	r3, [r3, #0]
 8003644:	2b01      	cmp	r3, #1
 8003646:	d901      	bls.n	800364c <xTaskIncrementTick+0x124>
 8003648:	2301      	movs	r3, #1
 800364a:	617b      	str	r3, [r7, #20]
 800364c:	4b11      	ldr	r3, [pc, #68]	; (8003694 <xTaskIncrementTick+0x16c>)
 800364e:	681b      	ldr	r3, [r3, #0]
 8003650:	2b00      	cmp	r3, #0
 8003652:	d007      	beq.n	8003664 <xTaskIncrementTick+0x13c>
 8003654:	2301      	movs	r3, #1
 8003656:	617b      	str	r3, [r7, #20]
 8003658:	e004      	b.n	8003664 <xTaskIncrementTick+0x13c>
 800365a:	4b0f      	ldr	r3, [pc, #60]	; (8003698 <xTaskIncrementTick+0x170>)
 800365c:	681b      	ldr	r3, [r3, #0]
 800365e:	3301      	adds	r3, #1
 8003660:	4a0d      	ldr	r2, [pc, #52]	; (8003698 <xTaskIncrementTick+0x170>)
 8003662:	6013      	str	r3, [r2, #0]
 8003664:	697b      	ldr	r3, [r7, #20]
 8003666:	4618      	mov	r0, r3
 8003668:	3718      	adds	r7, #24
 800366a:	46bd      	mov	sp, r7
 800366c:	bd80      	pop	{r7, pc}
 800366e:	bf00      	nop
 8003670:	20000be4 	.word	0x20000be4
 8003674:	20000bc0 	.word	0x20000bc0
 8003678:	20000b74 	.word	0x20000b74
 800367c:	20000b78 	.word	0x20000b78
 8003680:	20000bd4 	.word	0x20000bd4
 8003684:	20000bdc 	.word	0x20000bdc
 8003688:	20000bc4 	.word	0x20000bc4
 800368c:	200006ec 	.word	0x200006ec
 8003690:	200006e8 	.word	0x200006e8
 8003694:	20000bd0 	.word	0x20000bd0
 8003698:	20000bcc 	.word	0x20000bcc

0800369c <vTaskSwitchContext>:
 800369c:	b480      	push	{r7}
 800369e:	b085      	sub	sp, #20
 80036a0:	af00      	add	r7, sp, #0
 80036a2:	4b28      	ldr	r3, [pc, #160]	; (8003744 <vTaskSwitchContext+0xa8>)
 80036a4:	681b      	ldr	r3, [r3, #0]
 80036a6:	2b00      	cmp	r3, #0
 80036a8:	d003      	beq.n	80036b2 <vTaskSwitchContext+0x16>
 80036aa:	4b27      	ldr	r3, [pc, #156]	; (8003748 <vTaskSwitchContext+0xac>)
 80036ac:	2201      	movs	r2, #1
 80036ae:	601a      	str	r2, [r3, #0]
 80036b0:	e041      	b.n	8003736 <vTaskSwitchContext+0x9a>
 80036b2:	4b25      	ldr	r3, [pc, #148]	; (8003748 <vTaskSwitchContext+0xac>)
 80036b4:	2200      	movs	r2, #0
 80036b6:	601a      	str	r2, [r3, #0]
 80036b8:	4b24      	ldr	r3, [pc, #144]	; (800374c <vTaskSwitchContext+0xb0>)
 80036ba:	681b      	ldr	r3, [r3, #0]
 80036bc:	60fb      	str	r3, [r7, #12]
 80036be:	e010      	b.n	80036e2 <vTaskSwitchContext+0x46>
 80036c0:	68fb      	ldr	r3, [r7, #12]
 80036c2:	2b00      	cmp	r3, #0
 80036c4:	d10a      	bne.n	80036dc <vTaskSwitchContext+0x40>
 80036c6:	f04f 0350 	mov.w	r3, #80	; 0x50
 80036ca:	f383 8811 	msr	BASEPRI, r3
 80036ce:	f3bf 8f6f 	isb	sy
 80036d2:	f3bf 8f4f 	dsb	sy
 80036d6:	607b      	str	r3, [r7, #4]
 80036d8:	bf00      	nop
 80036da:	e7fe      	b.n	80036da <vTaskSwitchContext+0x3e>
 80036dc:	68fb      	ldr	r3, [r7, #12]
 80036de:	3b01      	subs	r3, #1
 80036e0:	60fb      	str	r3, [r7, #12]
 80036e2:	491b      	ldr	r1, [pc, #108]	; (8003750 <vTaskSwitchContext+0xb4>)
 80036e4:	68fa      	ldr	r2, [r7, #12]
 80036e6:	4613      	mov	r3, r2
 80036e8:	009b      	lsls	r3, r3, #2
 80036ea:	4413      	add	r3, r2
 80036ec:	009b      	lsls	r3, r3, #2
 80036ee:	440b      	add	r3, r1
 80036f0:	681b      	ldr	r3, [r3, #0]
 80036f2:	2b00      	cmp	r3, #0
 80036f4:	d0e4      	beq.n	80036c0 <vTaskSwitchContext+0x24>
 80036f6:	68fa      	ldr	r2, [r7, #12]
 80036f8:	4613      	mov	r3, r2
 80036fa:	009b      	lsls	r3, r3, #2
 80036fc:	4413      	add	r3, r2
 80036fe:	009b      	lsls	r3, r3, #2
 8003700:	4a13      	ldr	r2, [pc, #76]	; (8003750 <vTaskSwitchContext+0xb4>)
 8003702:	4413      	add	r3, r2
 8003704:	60bb      	str	r3, [r7, #8]
 8003706:	68bb      	ldr	r3, [r7, #8]
 8003708:	685b      	ldr	r3, [r3, #4]
 800370a:	685a      	ldr	r2, [r3, #4]
 800370c:	68bb      	ldr	r3, [r7, #8]
 800370e:	605a      	str	r2, [r3, #4]
 8003710:	68bb      	ldr	r3, [r7, #8]
 8003712:	685a      	ldr	r2, [r3, #4]
 8003714:	68bb      	ldr	r3, [r7, #8]
 8003716:	3308      	adds	r3, #8
 8003718:	429a      	cmp	r2, r3
 800371a:	d104      	bne.n	8003726 <vTaskSwitchContext+0x8a>
 800371c:	68bb      	ldr	r3, [r7, #8]
 800371e:	685b      	ldr	r3, [r3, #4]
 8003720:	685a      	ldr	r2, [r3, #4]
 8003722:	68bb      	ldr	r3, [r7, #8]
 8003724:	605a      	str	r2, [r3, #4]
 8003726:	68bb      	ldr	r3, [r7, #8]
 8003728:	685b      	ldr	r3, [r3, #4]
 800372a:	68db      	ldr	r3, [r3, #12]
 800372c:	4a09      	ldr	r2, [pc, #36]	; (8003754 <vTaskSwitchContext+0xb8>)
 800372e:	6013      	str	r3, [r2, #0]
 8003730:	4a06      	ldr	r2, [pc, #24]	; (800374c <vTaskSwitchContext+0xb0>)
 8003732:	68fb      	ldr	r3, [r7, #12]
 8003734:	6013      	str	r3, [r2, #0]
 8003736:	bf00      	nop
 8003738:	3714      	adds	r7, #20
 800373a:	46bd      	mov	sp, r7
 800373c:	f85d 7b04 	ldr.w	r7, [sp], #4
 8003740:	4770      	bx	lr
 8003742:	bf00      	nop
 8003744:	20000be4 	.word	0x20000be4
 8003748:	20000bd0 	.word	0x20000bd0
 800374c:	20000bc4 	.word	0x20000bc4
 8003750:	200006ec 	.word	0x200006ec
 8003754:	200006e8 	.word	0x200006e8

08003758 <vTaskPlaceOnEventList>:
 8003758:	b580      	push	{r7, lr}
 800375a:	b084      	sub	sp, #16
 800375c:	af00      	add	r7, sp, #0
 800375e:	6078      	str	r0, [r7, #4]
 8003760:	6039      	str	r1, [r7, #0]
 8003762:	687b      	ldr	r3, [r7, #4]
 8003764:	2b00      	cmp	r3, #0
 8003766:	d10a      	bne.n	800377e <vTaskPlaceOnEventList+0x26>
 8003768:	f04f 0350 	mov.w	r3, #80	; 0x50
 800376c:	f383 8811 	msr	BASEPRI, r3
 8003770:	f3bf 8f6f 	isb	sy
 8003774:	f3bf 8f4f 	dsb	sy
 8003778:	60fb      	str	r3, [r7, #12]
 800377a:	bf00      	nop
 800377c:	e7fe      	b.n	800377c <vTaskPlaceOnEventList+0x24>
 800377e:	4b07      	ldr	r3, [pc, #28]	; (800379c <vTaskPlaceOnEventList+0x44>)
 8003780:	681b      	ldr	r3, [r3, #0]
 8003782:	3318      	adds	r3, #24
 8003784:	4619      	mov	r1, r3
 8003786:	6878      	ldr	r0, [r7, #4]
 8003788:	f7fe febb 	bl	8002502 <vListInsert>
 800378c:	2101      	movs	r1, #1
 800378e:	6838      	ldr	r0, [r7, #0]
 8003790:	f000 fa7c 	bl	8003c8c <prvAddCurrentTaskToDelayedList>
 8003794:	bf00      	nop
 8003796:	3710      	adds	r7, #16
 8003798:	46bd      	mov	sp, r7
 800379a:	bd80      	pop	{r7, pc}
 800379c:	200006e8 	.word	0x200006e8

080037a0 <vTaskPlaceOnEventListRestricted>:
 80037a0:	b580      	push	{r7, lr}
 80037a2:	b086      	sub	sp, #24
 80037a4:	af00      	add	r7, sp, #0
 80037a6:	60f8      	str	r0, [r7, #12]
 80037a8:	60b9      	str	r1, [r7, #8]
 80037aa:	607a      	str	r2, [r7, #4]
 80037ac:	68fb      	ldr	r3, [r7, #12]
 80037ae:	2b00      	cmp	r3, #0
 80037b0:	d10a      	bne.n	80037c8 <vTaskPlaceOnEventListRestricted+0x28>
 80037b2:	f04f 0350 	mov.w	r3, #80	; 0x50
 80037b6:	f383 8811 	msr	BASEPRI, r3
 80037ba:	f3bf 8f6f 	isb	sy
 80037be:	f3bf 8f4f 	dsb	sy
 80037c2:	617b      	str	r3, [r7, #20]
 80037c4:	bf00      	nop
 80037c6:	e7fe      	b.n	80037c6 <vTaskPlaceOnEventListRestricted+0x26>
 80037c8:	4b0a      	ldr	r3, [pc, #40]	; (80037f4 <vTaskPlaceOnEventListRestricted+0x54>)
 80037ca:	681b      	ldr	r3, [r3, #0]
 80037cc:	3318      	adds	r3, #24
 80037ce:	4619      	mov	r1, r3
 80037d0:	68f8      	ldr	r0, [r7, #12]
 80037d2:	f7fe fe72 	bl	80024ba <vListInsertEnd>
 80037d6:	687b      	ldr	r3, [r7, #4]
 80037d8:	2b00      	cmp	r3, #0
 80037da:	d002      	beq.n	80037e2 <vTaskPlaceOnEventListRestricted+0x42>
 80037dc:	f04f 33ff 	mov.w	r3, #4294967295
 80037e0:	60bb      	str	r3, [r7, #8]
 80037e2:	6879      	ldr	r1, [r7, #4]
 80037e4:	68b8      	ldr	r0, [r7, #8]
 80037e6:	f000 fa51 	bl	8003c8c <prvAddCurrentTaskToDelayedList>
 80037ea:	bf00      	nop
 80037ec:	3718      	adds	r7, #24
 80037ee:	46bd      	mov	sp, r7
 80037f0:	bd80      	pop	{r7, pc}
 80037f2:	bf00      	nop
 80037f4:	200006e8 	.word	0x200006e8

080037f8 <xTaskRemoveFromEventList>:
 80037f8:	b580      	push	{r7, lr}
 80037fa:	b086      	sub	sp, #24
 80037fc:	af00      	add	r7, sp, #0
 80037fe:	6078      	str	r0, [r7, #4]
 8003800:	687b      	ldr	r3, [r7, #4]
 8003802:	68db      	ldr	r3, [r3, #12]
 8003804:	68db      	ldr	r3, [r3, #12]
 8003806:	613b      	str	r3, [r7, #16]
 8003808:	693b      	ldr	r3, [r7, #16]
 800380a:	2b00      	cmp	r3, #0
 800380c:	d10a      	bne.n	8003824 <xTaskRemoveFromEventList+0x2c>
 800380e:	f04f 0350 	mov.w	r3, #80	; 0x50
 8003812:	f383 8811 	msr	BASEPRI, r3
 8003816:	f3bf 8f6f 	isb	sy
 800381a:	f3bf 8f4f 	dsb	sy
 800381e:	60fb      	str	r3, [r7, #12]
 8003820:	bf00      	nop
 8003822:	e7fe      	b.n	8003822 <xTaskRemoveFromEventList+0x2a>
 8003824:	693b      	ldr	r3, [r7, #16]
 8003826:	3318      	adds	r3, #24
 8003828:	4618      	mov	r0, r3
 800382a:	f7fe fea3 	bl	8002574 <uxListRemove>
 800382e:	4b1e      	ldr	r3, [pc, #120]	; (80038a8 <xTaskRemoveFromEventList+0xb0>)
 8003830:	681b      	ldr	r3, [r3, #0]
 8003832:	2b00      	cmp	r3, #0
 8003834:	d11d      	bne.n	8003872 <xTaskRemoveFromEventList+0x7a>
 8003836:	693b      	ldr	r3, [r7, #16]
 8003838:	3304      	adds	r3, #4
 800383a:	4618      	mov	r0, r3
 800383c:	f7fe fe9a 	bl	8002574 <uxListRemove>
 8003840:	693b      	ldr	r3, [r7, #16]
 8003842:	6ada      	ldr	r2, [r3, #44]	; 0x2c
 8003844:	4b19      	ldr	r3, [pc, #100]	; (80038ac <xTaskRemoveFromEventList+0xb4>)
 8003846:	681b      	ldr	r3, [r3, #0]
 8003848:	429a      	cmp	r2, r3
 800384a:	d903      	bls.n	8003854 <xTaskRemoveFromEventList+0x5c>
 800384c:	693b      	ldr	r3, [r7, #16]
 800384e:	6adb      	ldr	r3, [r3, #44]	; 0x2c
 8003850:	4a16      	ldr	r2, [pc, #88]	; (80038ac <xTaskRemoveFromEventList+0xb4>)
 8003852:	6013      	str	r3, [r2, #0]
 8003854:	693b      	ldr	r3, [r7, #16]
 8003856:	6ada      	ldr	r2, [r3, #44]	; 0x2c
 8003858:	4613      	mov	r3, r2
 800385a:	009b      	lsls	r3, r3, #2
 800385c:	4413      	add	r3, r2
 800385e:	009b      	lsls	r3, r3, #2
 8003860:	4a13      	ldr	r2, [pc, #76]	; (80038b0 <xTaskRemoveFromEventList+0xb8>)
 8003862:	441a      	add	r2, r3
 8003864:	693b      	ldr	r3, [r7, #16]
 8003866:	3304      	adds	r3, #4
 8003868:	4619      	mov	r1, r3
 800386a:	4610      	mov	r0, r2
 800386c:	f7fe fe25 	bl	80024ba <vListInsertEnd>
 8003870:	e005      	b.n	800387e <xTaskRemoveFromEventList+0x86>
 8003872:	693b      	ldr	r3, [r7, #16]
 8003874:	3318      	adds	r3, #24
 8003876:	4619      	mov	r1, r3
 8003878:	480e      	ldr	r0, [pc, #56]	; (80038b4 <xTaskRemoveFromEventList+0xbc>)
 800387a:	f7fe fe1e 	bl	80024ba <vListInsertEnd>
 800387e:	693b      	ldr	r3, [r7, #16]
 8003880:	6ada      	ldr	r2, [r3, #44]	; 0x2c
 8003882:	4b0d      	ldr	r3, [pc, #52]	; (80038b8 <xTaskRemoveFromEventList+0xc0>)
 8003884:	681b      	ldr	r3, [r3, #0]
 8003886:	6adb      	ldr	r3, [r3, #44]	; 0x2c
 8003888:	429a      	cmp	r2, r3
 800388a:	d905      	bls.n	8003898 <xTaskRemoveFromEventList+0xa0>
 800388c:	2301      	movs	r3, #1
 800388e:	617b      	str	r3, [r7, #20]
 8003890:	4b0a      	ldr	r3, [pc, #40]	; (80038bc <xTaskRemoveFromEventList+0xc4>)
 8003892:	2201      	movs	r2, #1
 8003894:	601a      	str	r2, [r3, #0]
 8003896:	e001      	b.n	800389c <xTaskRemoveFromEventList+0xa4>
 8003898:	2300      	movs	r3, #0
 800389a:	617b      	str	r3, [r7, #20]
 800389c:	697b      	ldr	r3, [r7, #20]
 800389e:	4618      	mov	r0, r3
 80038a0:	3718      	adds	r7, #24
 80038a2:	46bd      	mov	sp, r7
 80038a4:	bd80      	pop	{r7, pc}
 80038a6:	bf00      	nop
 80038a8:	20000be4 	.word	0x20000be4
 80038ac:	20000bc4 	.word	0x20000bc4
 80038b0:	200006ec 	.word	0x200006ec
 80038b4:	20000b7c 	.word	0x20000b7c
 80038b8:	200006e8 	.word	0x200006e8
 80038bc:	20000bd0 	.word	0x20000bd0

080038c0 <vTaskInternalSetTimeOutState>:
 80038c0:	b480      	push	{r7}
 80038c2:	b083      	sub	sp, #12
 80038c4:	af00      	add	r7, sp, #0
 80038c6:	6078      	str	r0, [r7, #4]
 80038c8:	4b06      	ldr	r3, [pc, #24]	; (80038e4 <vTaskInternalSetTimeOutState+0x24>)
 80038ca:	681a      	ldr	r2, [r3, #0]
 80038cc:	687b      	ldr	r3, [r7, #4]
 80038ce:	601a      	str	r2, [r3, #0]
 80038d0:	4b05      	ldr	r3, [pc, #20]	; (80038e8 <vTaskInternalSetTimeOutState+0x28>)
 80038d2:	681a      	ldr	r2, [r3, #0]
 80038d4:	687b      	ldr	r3, [r7, #4]
 80038d6:	605a      	str	r2, [r3, #4]
 80038d8:	bf00      	nop
 80038da:	370c      	adds	r7, #12
 80038dc:	46bd      	mov	sp, r7
 80038de:	f85d 7b04 	ldr.w	r7, [sp], #4
 80038e2:	4770      	bx	lr
 80038e4:	20000bd4 	.word	0x20000bd4
 80038e8:	20000bc0 	.word	0x20000bc0

080038ec <xTaskCheckForTimeOut>:
 80038ec:	b580      	push	{r7, lr}
 80038ee:	b088      	sub	sp, #32
 80038f0:	af00      	add	r7, sp, #0
 80038f2:	6078      	str	r0, [r7, #4]
 80038f4:	6039      	str	r1, [r7, #0]
 80038f6:	687b      	ldr	r3, [r7, #4]
 80038f8:	2b00      	cmp	r3, #0
 80038fa:	d10a      	bne.n	8003912 <xTaskCheckForTimeOut+0x26>
 80038fc:	f04f 0350 	mov.w	r3, #80	; 0x50
 8003900:	f383 8811 	msr	BASEPRI, r3
 8003904:	f3bf 8f6f 	isb	sy
 8003908:	f3bf 8f4f 	dsb	sy
 800390c:	613b      	str	r3, [r7, #16]
 800390e:	bf00      	nop
 8003910:	e7fe      	b.n	8003910 <xTaskCheckForTimeOut+0x24>
 8003912:	683b      	ldr	r3, [r7, #0]
 8003914:	2b00      	cmp	r3, #0
 8003916:	d10a      	bne.n	800392e <xTaskCheckForTimeOut+0x42>
 8003918:	f04f 0350 	mov.w	r3, #80	; 0x50
 800391c:	f383 8811 	msr	BASEPRI, r3
 8003920:	f3bf 8f6f 	isb	sy
 8003924:	f3bf 8f4f 	dsb	sy
 8003928:	60fb      	str	r3, [r7, #12]
 800392a:	bf00      	nop
 800392c:	e7fe      	b.n	800392c <xTaskCheckForTimeOut+0x40>
 800392e:	f000 fe79 	bl	8004624 <vPortEnterCritical>
 8003932:	4b1d      	ldr	r3, [pc, #116]	; (80039a8 <xTaskCheckForTimeOut+0xbc>)
 8003934:	681b      	ldr	r3, [r3, #0]
 8003936:	61bb      	str	r3, [r7, #24]
 8003938:	687b      	ldr	r3, [r7, #4]
 800393a:	685b      	ldr	r3, [r3, #4]
 800393c:	69ba      	ldr	r2, [r7, #24]
 800393e:	1ad3      	subs	r3, r2, r3
 8003940:	617b      	str	r3, [r7, #20]
 8003942:	683b      	ldr	r3, [r7, #0]
 8003944:	681b      	ldr	r3, [r3, #0]
 8003946:	f1b3 3fff 	cmp.w	r3, #4294967295
 800394a:	d102      	bne.n	8003952 <xTaskCheckForTimeOut+0x66>
 800394c:	2300      	movs	r3, #0
 800394e:	61fb      	str	r3, [r7, #28]
 8003950:	e023      	b.n	800399a <xTaskCheckForTimeOut+0xae>
 8003952:	687b      	ldr	r3, [r7, #4]
 8003954:	681a      	ldr	r2, [r3, #0]
 8003956:	4b15      	ldr	r3, [pc, #84]	; (80039ac <xTaskCheckForTimeOut+0xc0>)
 8003958:	681b      	ldr	r3, [r3, #0]
 800395a:	429a      	cmp	r2, r3
 800395c:	d007      	beq.n	800396e <xTaskCheckForTimeOut+0x82>
 800395e:	687b      	ldr	r3, [r7, #4]
 8003960:	685b      	ldr	r3, [r3, #4]
 8003962:	69ba      	ldr	r2, [r7, #24]
 8003964:	429a      	cmp	r2, r3
 8003966:	d302      	bcc.n	800396e <xTaskCheckForTimeOut+0x82>
 8003968:	2301      	movs	r3, #1
 800396a:	61fb      	str	r3, [r7, #28]
 800396c:	e015      	b.n	800399a <xTaskCheckForTimeOut+0xae>
 800396e:	683b      	ldr	r3, [r7, #0]
 8003970:	681b      	ldr	r3, [r3, #0]
 8003972:	697a      	ldr	r2, [r7, #20]
 8003974:	429a      	cmp	r2, r3
 8003976:	d20b      	bcs.n	8003990 <xTaskCheckForTimeOut+0xa4>
 8003978:	683b      	ldr	r3, [r7, #0]
 800397a:	681a      	ldr	r2, [r3, #0]
 800397c:	697b      	ldr	r3, [r7, #20]
 800397e:	1ad2      	subs	r2, r2, r3
 8003980:	683b      	ldr	r3, [r7, #0]
 8003982:	601a      	str	r2, [r3, #0]
 8003984:	6878      	ldr	r0, [r7, #4]
 8003986:	f7ff ff9b 	bl	80038c0 <vTaskInternalSetTimeOutState>
 800398a:	2300      	movs	r3, #0
 800398c:	61fb      	str	r3, [r7, #28]
 800398e:	e004      	b.n	800399a <xTaskCheckForTimeOut+0xae>
 8003990:	683b      	ldr	r3, [r7, #0]
 8003992:	2200      	movs	r2, #0
 8003994:	601a      	str	r2, [r3, #0]
 8003996:	2301      	movs	r3, #1
 8003998:	61fb      	str	r3, [r7, #28]
 800399a:	f000 fe73 	bl	8004684 <vPortExitCritical>
 800399e:	69fb      	ldr	r3, [r7, #28]
 80039a0:	4618      	mov	r0, r3
 80039a2:	3720      	adds	r7, #32
 80039a4:	46bd      	mov	sp, r7
 80039a6:	bd80      	pop	{r7, pc}
 80039a8:	20000bc0 	.word	0x20000bc0
 80039ac:	20000bd4 	.word	0x20000bd4

080039b0 <vTaskMissedYield>:
 80039b0:	b480      	push	{r7}
 80039b2:	af00      	add	r7, sp, #0
 80039b4:	4b03      	ldr	r3, [pc, #12]	; (80039c4 <vTaskMissedYield+0x14>)
 80039b6:	2201      	movs	r2, #1
 80039b8:	601a      	str	r2, [r3, #0]
 80039ba:	bf00      	nop
 80039bc:	46bd      	mov	sp, r7
 80039be:	f85d 7b04 	ldr.w	r7, [sp], #4
 80039c2:	4770      	bx	lr
 80039c4:	20000bd0 	.word	0x20000bd0

080039c8 <prvIdleTask>:
 80039c8:	b580      	push	{r7, lr}
 80039ca:	b082      	sub	sp, #8
 80039cc:	af00      	add	r7, sp, #0
 80039ce:	6078      	str	r0, [r7, #4]
 80039d0:	f000 f852 	bl	8003a78 <prvCheckTasksWaitingTermination>
 80039d4:	4b06      	ldr	r3, [pc, #24]	; (80039f0 <prvIdleTask+0x28>)
 80039d6:	681b      	ldr	r3, [r3, #0]
 80039d8:	2b01      	cmp	r3, #1
 80039da:	d9f9      	bls.n	80039d0 <prvIdleTask+0x8>
 80039dc:	4b05      	ldr	r3, [pc, #20]	; (80039f4 <prvIdleTask+0x2c>)
 80039de:	f04f 5280 	mov.w	r2, #268435456	; 0x10000000
 80039e2:	601a      	str	r2, [r3, #0]
 80039e4:	f3bf 8f4f 	dsb	sy
 80039e8:	f3bf 8f6f 	isb	sy
 80039ec:	e7f0      	b.n	80039d0 <prvIdleTask+0x8>
 80039ee:	bf00      	nop
 80039f0:	200006ec 	.word	0x200006ec
 80039f4:	e000ed04 	.word	0xe000ed04

080039f8 <prvInitialiseTaskLists>:
 80039f8:	b580      	push	{r7, lr}
 80039fa:	b082      	sub	sp, #8
 80039fc:	af00      	add	r7, sp, #0
 80039fe:	2300      	movs	r3, #0
 8003a00:	607b      	str	r3, [r7, #4]
 8003a02:	e00c      	b.n	8003a1e <prvInitialiseTaskLists+0x26>
 8003a04:	687a      	ldr	r2, [r7, #4]
 8003a06:	4613      	mov	r3, r2
 8003a08:	009b      	lsls	r3, r3, #2
 8003a0a:	4413      	add	r3, r2
 8003a0c:	009b      	lsls	r3, r3, #2
 8003a0e:	4a12      	ldr	r2, [pc, #72]	; (8003a58 <prvInitialiseTaskLists+0x60>)
 8003a10:	4413      	add	r3, r2
 8003a12:	4618      	mov	r0, r3
 8003a14:	f7fe fd24 	bl	8002460 <vListInitialise>
 8003a18:	687b      	ldr	r3, [r7, #4]
 8003a1a:	3301      	adds	r3, #1
 8003a1c:	607b      	str	r3, [r7, #4]
 8003a1e:	687b      	ldr	r3, [r7, #4]
 8003a20:	2b37      	cmp	r3, #55	; 0x37
 8003a22:	d9ef      	bls.n	8003a04 <prvInitialiseTaskLists+0xc>
 8003a24:	480d      	ldr	r0, [pc, #52]	; (8003a5c <prvInitialiseTaskLists+0x64>)
 8003a26:	f7fe fd1b 	bl	8002460 <vListInitialise>
 8003a2a:	480d      	ldr	r0, [pc, #52]	; (8003a60 <prvInitialiseTaskLists+0x68>)
 8003a2c:	f7fe fd18 	bl	8002460 <vListInitialise>
 8003a30:	480c      	ldr	r0, [pc, #48]	; (8003a64 <prvInitialiseTaskLists+0x6c>)
 8003a32:	f7fe fd15 	bl	8002460 <vListInitialise>
 8003a36:	480c      	ldr	r0, [pc, #48]	; (8003a68 <prvInitialiseTaskLists+0x70>)
 8003a38:	f7fe fd12 	bl	8002460 <vListInitialise>
 8003a3c:	480b      	ldr	r0, [pc, #44]	; (8003a6c <prvInitialiseTaskLists+0x74>)
 8003a3e:	f7fe fd0f 	bl	8002460 <vListInitialise>
 8003a42:	4b0b      	ldr	r3, [pc, #44]	; (8003a70 <prvInitialiseTaskLists+0x78>)
 8003a44:	4a05      	ldr	r2, [pc, #20]	; (8003a5c <prvInitialiseTaskLists+0x64>)
 8003a46:	601a      	str	r2, [r3, #0]
 8003a48:	4b0a      	ldr	r3, [pc, #40]	; (8003a74 <prvInitialiseTaskLists+0x7c>)
 8003a4a:	4a05      	ldr	r2, [pc, #20]	; (8003a60 <prvInitialiseTaskLists+0x68>)
 8003a4c:	601a      	str	r2, [r3, #0]
 8003a4e:	bf00      	nop
 8003a50:	3708      	adds	r7, #8
 8003a52:	46bd      	mov	sp, r7
 8003a54:	bd80      	pop	{r7, pc}
 8003a56:	bf00      	nop
 8003a58:	200006ec 	.word	0x200006ec
 8003a5c:	20000b4c 	.word	0x20000b4c
 8003a60:	20000b60 	.word	0x20000b60
 8003a64:	20000b7c 	.word	0x20000b7c
 8003a68:	20000b90 	.word	0x20000b90
 8003a6c:	20000ba8 	.word	0x20000ba8
 8003a70:	20000b74 	.word	0x20000b74
 8003a74:	20000b78 	.word	0x20000b78

08003a78 <prvCheckTasksWaitingTermination>:
 8003a78:	b580      	push	{r7, lr}
 8003a7a:	b082      	sub	sp, #8
 8003a7c:	af00      	add	r7, sp, #0
 8003a7e:	e019      	b.n	8003ab4 <prvCheckTasksWaitingTermination+0x3c>
 8003a80:	f000 fdd0 	bl	8004624 <vPortEnterCritical>
 8003a84:	4b10      	ldr	r3, [pc, #64]	; (8003ac8 <prvCheckTasksWaitingTermination+0x50>)
 8003a86:	68db      	ldr	r3, [r3, #12]
 8003a88:	68db      	ldr	r3, [r3, #12]
 8003a8a:	607b      	str	r3, [r7, #4]
 8003a8c:	687b      	ldr	r3, [r7, #4]
 8003a8e:	3304      	adds	r3, #4
 8003a90:	4618      	mov	r0, r3
 8003a92:	f7fe fd6f 	bl	8002574 <uxListRemove>
 8003a96:	4b0d      	ldr	r3, [pc, #52]	; (8003acc <prvCheckTasksWaitingTermination+0x54>)
 8003a98:	681b      	ldr	r3, [r3, #0]
 8003a9a:	3b01      	subs	r3, #1
 8003a9c:	4a0b      	ldr	r2, [pc, #44]	; (8003acc <prvCheckTasksWaitingTermination+0x54>)
 8003a9e:	6013      	str	r3, [r2, #0]
 8003aa0:	4b0b      	ldr	r3, [pc, #44]	; (8003ad0 <prvCheckTasksWaitingTermination+0x58>)
 8003aa2:	681b      	ldr	r3, [r3, #0]
 8003aa4:	3b01      	subs	r3, #1
 8003aa6:	4a0a      	ldr	r2, [pc, #40]	; (8003ad0 <prvCheckTasksWaitingTermination+0x58>)
 8003aa8:	6013      	str	r3, [r2, #0]
 8003aaa:	f000 fdeb 	bl	8004684 <vPortExitCritical>
 8003aae:	6878      	ldr	r0, [r7, #4]
 8003ab0:	f000 f810 	bl	8003ad4 <prvDeleteTCB>
 8003ab4:	4b06      	ldr	r3, [pc, #24]	; (8003ad0 <prvCheckTasksWaitingTermination+0x58>)
 8003ab6:	681b      	ldr	r3, [r3, #0]
 8003ab8:	2b00      	cmp	r3, #0
 8003aba:	d1e1      	bne.n	8003a80 <prvCheckTasksWaitingTermination+0x8>
 8003abc:	bf00      	nop
 8003abe:	bf00      	nop
 8003ac0:	3708      	adds	r7, #8
 8003ac2:	46bd      	mov	sp, r7
 8003ac4:	bd80      	pop	{r7, pc}
 8003ac6:	bf00      	nop
 8003ac8:	20000b90 	.word	0x20000b90
 8003acc:	20000bbc 	.word	0x20000bbc
 8003ad0:	20000ba4 	.word	0x20000ba4

08003ad4 <prvDeleteTCB>:
 8003ad4:	b580      	push	{r7, lr}
 8003ad6:	b084      	sub	sp, #16
 8003ad8:	af00      	add	r7, sp, #0
 8003ada:	6078      	str	r0, [r7, #4]
 8003adc:	687b      	ldr	r3, [r7, #4]
 8003ade:	f893 3059 	ldrb.w	r3, [r3, #89]	; 0x59
 8003ae2:	2b00      	cmp	r3, #0
 8003ae4:	d108      	bne.n	8003af8 <prvDeleteTCB+0x24>
 8003ae6:	687b      	ldr	r3, [r7, #4]
 8003ae8:	6b1b      	ldr	r3, [r3, #48]	; 0x30
 8003aea:	4618      	mov	r0, r3
 8003aec:	f000 ff88 	bl	8004a00 <vPortFree>
 8003af0:	6878      	ldr	r0, [r7, #4]
 8003af2:	f000 ff85 	bl	8004a00 <vPortFree>
 8003af6:	e018      	b.n	8003b2a <prvDeleteTCB+0x56>
 8003af8:	687b      	ldr	r3, [r7, #4]
 8003afa:	f893 3059 	ldrb.w	r3, [r3, #89]	; 0x59
 8003afe:	2b01      	cmp	r3, #1
 8003b00:	d103      	bne.n	8003b0a <prvDeleteTCB+0x36>
 8003b02:	6878      	ldr	r0, [r7, #4]
 8003b04:	f000 ff7c 	bl	8004a00 <vPortFree>
 8003b08:	e00f      	b.n	8003b2a <prvDeleteTCB+0x56>
 8003b0a:	687b      	ldr	r3, [r7, #4]
 8003b0c:	f893 3059 	ldrb.w	r3, [r3, #89]	; 0x59
 8003b10:	2b02      	cmp	r3, #2
 8003b12:	d00a      	beq.n	8003b2a <prvDeleteTCB+0x56>
 8003b14:	f04f 0350 	mov.w	r3, #80	; 0x50
 8003b18:	f383 8811 	msr	BASEPRI, r3
 8003b1c:	f3bf 8f6f 	isb	sy
 8003b20:	f3bf 8f4f 	dsb	sy
 8003b24:	60fb      	str	r3, [r7, #12]
 8003b26:	bf00      	nop
 8003b28:	e7fe      	b.n	8003b28 <prvDeleteTCB+0x54>
 8003b2a:	bf00      	nop
 8003b2c:	3710      	adds	r7, #16
 8003b2e:	46bd      	mov	sp, r7
 8003b30:	bd80      	pop	{r7, pc}
	...

08003b34 <prvResetNextTaskUnblockTime>:
 8003b34:	b480      	push	{r7}
 8003b36:	b083      	sub	sp, #12
 8003b38:	af00      	add	r7, sp, #0
 8003b3a:	4b0c      	ldr	r3, [pc, #48]	; (8003b6c <prvResetNextTaskUnblockTime+0x38>)
 8003b3c:	681b      	ldr	r3, [r3, #0]
 8003b3e:	681b      	ldr	r3, [r3, #0]
 8003b40:	2b00      	cmp	r3, #0
 8003b42:	d104      	bne.n	8003b4e <prvResetNextTaskUnblockTime+0x1a>
 8003b44:	4b0a      	ldr	r3, [pc, #40]	; (8003b70 <prvResetNextTaskUnblockTime+0x3c>)
 8003b46:	f04f 32ff 	mov.w	r2, #4294967295
 8003b4a:	601a      	str	r2, [r3, #0]
 8003b4c:	e008      	b.n	8003b60 <prvResetNextTaskUnblockTime+0x2c>
 8003b4e:	4b07      	ldr	r3, [pc, #28]	; (8003b6c <prvResetNextTaskUnblockTime+0x38>)
 8003b50:	681b      	ldr	r3, [r3, #0]
 8003b52:	68db      	ldr	r3, [r3, #12]
 8003b54:	68db      	ldr	r3, [r3, #12]
 8003b56:	607b      	str	r3, [r7, #4]
 8003b58:	687b      	ldr	r3, [r7, #4]
 8003b5a:	685b      	ldr	r3, [r3, #4]
 8003b5c:	4a04      	ldr	r2, [pc, #16]	; (8003b70 <prvResetNextTaskUnblockTime+0x3c>)
 8003b5e:	6013      	str	r3, [r2, #0]
 8003b60:	bf00      	nop
 8003b62:	370c      	adds	r7, #12
 8003b64:	46bd      	mov	sp, r7
 8003b66:	f85d 7b04 	ldr.w	r7, [sp], #4
 8003b6a:	4770      	bx	lr
 8003b6c:	20000b74 	.word	0x20000b74
 8003b70:	20000bdc 	.word	0x20000bdc

08003b74 <xTaskGetSchedulerState>:
 8003b74:	b480      	push	{r7}
 8003b76:	b083      	sub	sp, #12
 8003b78:	af00      	add	r7, sp, #0
 8003b7a:	4b0b      	ldr	r3, [pc, #44]	; (8003ba8 <xTaskGetSchedulerState+0x34>)
 8003b7c:	681b      	ldr	r3, [r3, #0]
 8003b7e:	2b00      	cmp	r3, #0
 8003b80:	d102      	bne.n	8003b88 <xTaskGetSchedulerState+0x14>
 8003b82:	2301      	movs	r3, #1
 8003b84:	607b      	str	r3, [r7, #4]
 8003b86:	e008      	b.n	8003b9a <xTaskGetSchedulerState+0x26>
 8003b88:	4b08      	ldr	r3, [pc, #32]	; (8003bac <xTaskGetSchedulerState+0x38>)
 8003b8a:	681b      	ldr	r3, [r3, #0]
 8003b8c:	2b00      	cmp	r3, #0
 8003b8e:	d102      	bne.n	8003b96 <xTaskGetSchedulerState+0x22>
 8003b90:	2302      	movs	r3, #2
 8003b92:	607b      	str	r3, [r7, #4]
 8003b94:	e001      	b.n	8003b9a <xTaskGetSchedulerState+0x26>
 8003b96:	2300      	movs	r3, #0
 8003b98:	607b      	str	r3, [r7, #4]
 8003b9a:	687b      	ldr	r3, [r7, #4]
 8003b9c:	4618      	mov	r0, r3
 8003b9e:	370c      	adds	r7, #12
 8003ba0:	46bd      	mov	sp, r7
 8003ba2:	f85d 7b04 	ldr.w	r7, [sp], #4
 8003ba6:	4770      	bx	lr
 8003ba8:	20000bc8 	.word	0x20000bc8
 8003bac:	20000be4 	.word	0x20000be4

08003bb0 <xTaskPriorityDisinherit>:
 8003bb0:	b580      	push	{r7, lr}
 8003bb2:	b086      	sub	sp, #24
 8003bb4:	af00      	add	r7, sp, #0
 8003bb6:	6078      	str	r0, [r7, #4]
 8003bb8:	687b      	ldr	r3, [r7, #4]
 8003bba:	613b      	str	r3, [r7, #16]
 8003bbc:	2300      	movs	r3, #0
 8003bbe:	617b      	str	r3, [r7, #20]
 8003bc0:	687b      	ldr	r3, [r7, #4]
 8003bc2:	2b00      	cmp	r3, #0
 8003bc4:	d056      	beq.n	8003c74 <xTaskPriorityDisinherit+0xc4>
 8003bc6:	4b2e      	ldr	r3, [pc, #184]	; (8003c80 <xTaskPriorityDisinherit+0xd0>)
 8003bc8:	681b      	ldr	r3, [r3, #0]
 8003bca:	693a      	ldr	r2, [r7, #16]
 8003bcc:	429a      	cmp	r2, r3
 8003bce:	d00a      	beq.n	8003be6 <xTaskPriorityDisinherit+0x36>
 8003bd0:	f04f 0350 	mov.w	r3, #80	; 0x50
 8003bd4:	f383 8811 	msr	BASEPRI, r3
 8003bd8:	f3bf 8f6f 	isb	sy
 8003bdc:	f3bf 8f4f 	dsb	sy
 8003be0:	60fb      	str	r3, [r7, #12]
 8003be2:	bf00      	nop
 8003be4:	e7fe      	b.n	8003be4 <xTaskPriorityDisinherit+0x34>
 8003be6:	693b      	ldr	r3, [r7, #16]
 8003be8:	6d1b      	ldr	r3, [r3, #80]	; 0x50
 8003bea:	2b00      	cmp	r3, #0
 8003bec:	d10a      	bne.n	8003c04 <xTaskPriorityDisinherit+0x54>
 8003bee:	f04f 0350 	mov.w	r3, #80	; 0x50
 8003bf2:	f383 8811 	msr	BASEPRI, r3
 8003bf6:	f3bf 8f6f 	isb	sy
 8003bfa:	f3bf 8f4f 	dsb	sy
 8003bfe:	60bb      	str	r3, [r7, #8]
 8003c00:	bf00      	nop
 8003c02:	e7fe      	b.n	8003c02 <xTaskPriorityDisinherit+0x52>
 8003c04:	693b      	ldr	r3, [r7, #16]
 8003c06:	6d1b      	ldr	r3, [r3, #80]	; 0x50
 8003c08:	1e5a      	subs	r2, r3, #1
 8003c0a:	693b      	ldr	r3, [r7, #16]
 8003c0c:	651a      	str	r2, [r3, #80]	; 0x50
 8003c0e:	693b      	ldr	r3, [r7, #16]
 8003c10:	6ada      	ldr	r2, [r3, #44]	; 0x2c
 8003c12:	693b      	ldr	r3, [r7, #16]
 8003c14:	6cdb      	ldr	r3, [r3, #76]	; 0x4c
 8003c16:	429a      	cmp	r2, r3
 8003c18:	d02c      	beq.n	8003c74 <xTaskPriorityDisinherit+0xc4>
 8003c1a:	693b      	ldr	r3, [r7, #16]
 8003c1c:	6d1b      	ldr	r3, [r3, #80]	; 0x50
 8003c1e:	2b00      	cmp	r3, #0
 8003c20:	d128      	bne.n	8003c74 <xTaskPriorityDisinherit+0xc4>
 8003c22:	693b      	ldr	r3, [r7, #16]
 8003c24:	3304      	adds	r3, #4
 8003c26:	4618      	mov	r0, r3
 8003c28:	f7fe fca4 	bl	8002574 <uxListRemove>
 8003c2c:	693b      	ldr	r3, [r7, #16]
 8003c2e:	6cda      	ldr	r2, [r3, #76]	; 0x4c
 8003c30:	693b      	ldr	r3, [r7, #16]
 8003c32:	62da      	str	r2, [r3, #44]	; 0x2c
 8003c34:	693b      	ldr	r3, [r7, #16]
 8003c36:	6adb      	ldr	r3, [r3, #44]	; 0x2c
 8003c38:	f1c3 0238 	rsb	r2, r3, #56	; 0x38
 8003c3c:	693b      	ldr	r3, [r7, #16]
 8003c3e:	619a      	str	r2, [r3, #24]
 8003c40:	693b      	ldr	r3, [r7, #16]
 8003c42:	6ada      	ldr	r2, [r3, #44]	; 0x2c
 8003c44:	4b0f      	ldr	r3, [pc, #60]	; (8003c84 <xTaskPriorityDisinherit+0xd4>)
 8003c46:	681b      	ldr	r3, [r3, #0]
 8003c48:	429a      	cmp	r2, r3
 8003c4a:	d903      	bls.n	8003c54 <xTaskPriorityDisinherit+0xa4>
 8003c4c:	693b      	ldr	r3, [r7, #16]
 8003c4e:	6adb      	ldr	r3, [r3, #44]	; 0x2c
 8003c50:	4a0c      	ldr	r2, [pc, #48]	; (8003c84 <xTaskPriorityDisinherit+0xd4>)
 8003c52:	6013      	str	r3, [r2, #0]
 8003c54:	693b      	ldr	r3, [r7, #16]
 8003c56:	6ada      	ldr	r2, [r3, #44]	; 0x2c
 8003c58:	4613      	mov	r3, r2
 8003c5a:	009b      	lsls	r3, r3, #2
 8003c5c:	4413      	add	r3, r2
 8003c5e:	009b      	lsls	r3, r3, #2
 8003c60:	4a09      	ldr	r2, [pc, #36]	; (8003c88 <xTaskPriorityDisinherit+0xd8>)
 8003c62:	441a      	add	r2, r3
 8003c64:	693b      	ldr	r3, [r7, #16]
 8003c66:	3304      	adds	r3, #4
 8003c68:	4619      	mov	r1, r3
 8003c6a:	4610      	mov	r0, r2
 8003c6c:	f7fe fc25 	bl	80024ba <vListInsertEnd>
 8003c70:	2301      	movs	r3, #1
 8003c72:	617b      	str	r3, [r7, #20]
 8003c74:	697b      	ldr	r3, [r7, #20]
 8003c76:	4618      	mov	r0, r3
 8003c78:	3718      	adds	r7, #24
 8003c7a:	46bd      	mov	sp, r7
 8003c7c:	bd80      	pop	{r7, pc}
 8003c7e:	bf00      	nop
 8003c80:	200006e8 	.word	0x200006e8
 8003c84:	20000bc4 	.word	0x20000bc4
 8003c88:	200006ec 	.word	0x200006ec

08003c8c <prvAddCurrentTaskToDelayedList>:
 8003c8c:	b580      	push	{r7, lr}
 8003c8e:	b084      	sub	sp, #16
 8003c90:	af00      	add	r7, sp, #0
 8003c92:	6078      	str	r0, [r7, #4]
 8003c94:	6039      	str	r1, [r7, #0]
 8003c96:	4b21      	ldr	r3, [pc, #132]	; (8003d1c <prvAddCurrentTaskToDelayedList+0x90>)
 8003c98:	681b      	ldr	r3, [r3, #0]
 8003c9a:	60fb      	str	r3, [r7, #12]
 8003c9c:	4b20      	ldr	r3, [pc, #128]	; (8003d20 <prvAddCurrentTaskToDelayedList+0x94>)
 8003c9e:	681b      	ldr	r3, [r3, #0]
 8003ca0:	3304      	adds	r3, #4
 8003ca2:	4618      	mov	r0, r3
 8003ca4:	f7fe fc66 	bl	8002574 <uxListRemove>
 8003ca8:	687b      	ldr	r3, [r7, #4]
 8003caa:	f1b3 3fff 	cmp.w	r3, #4294967295
 8003cae:	d10a      	bne.n	8003cc6 <prvAddCurrentTaskToDelayedList+0x3a>
 8003cb0:	683b      	ldr	r3, [r7, #0]
 8003cb2:	2b00      	cmp	r3, #0
 8003cb4:	d007      	beq.n	8003cc6 <prvAddCurrentTaskToDelayedList+0x3a>
 8003cb6:	4b1a      	ldr	r3, [pc, #104]	; (8003d20 <prvAddCurrentTaskToDelayedList+0x94>)
 8003cb8:	681b      	ldr	r3, [r3, #0]
 8003cba:	3304      	adds	r3, #4
 8003cbc:	4619      	mov	r1, r3
 8003cbe:	4819      	ldr	r0, [pc, #100]	; (8003d24 <prvAddCurrentTaskToDelayedList+0x98>)
 8003cc0:	f7fe fbfb 	bl	80024ba <vListInsertEnd>
 8003cc4:	e026      	b.n	8003d14 <prvAddCurrentTaskToDelayedList+0x88>
 8003cc6:	68fa      	ldr	r2, [r7, #12]
 8003cc8:	687b      	ldr	r3, [r7, #4]
 8003cca:	4413      	add	r3, r2
 8003ccc:	60bb      	str	r3, [r7, #8]
 8003cce:	4b14      	ldr	r3, [pc, #80]	; (8003d20 <prvAddCurrentTaskToDelayedList+0x94>)
 8003cd0:	681b      	ldr	r3, [r3, #0]
 8003cd2:	68ba      	ldr	r2, [r7, #8]
 8003cd4:	605a      	str	r2, [r3, #4]
 8003cd6:	68ba      	ldr	r2, [r7, #8]
 8003cd8:	68fb      	ldr	r3, [r7, #12]
 8003cda:	429a      	cmp	r2, r3
 8003cdc:	d209      	bcs.n	8003cf2 <prvAddCurrentTaskToDelayedList+0x66>
 8003cde:	4b12      	ldr	r3, [pc, #72]	; (8003d28 <prvAddCurrentTaskToDelayedList+0x9c>)
 8003ce0:	681a      	ldr	r2, [r3, #0]
 8003ce2:	4b0f      	ldr	r3, [pc, #60]	; (8003d20 <prvAddCurrentTaskToDelayedList+0x94>)
 8003ce4:	681b      	ldr	r3, [r3, #0]
 8003ce6:	3304      	adds	r3, #4
 8003ce8:	4619      	mov	r1, r3
 8003cea:	4610      	mov	r0, r2
 8003cec:	f7fe fc09 	bl	8002502 <vListInsert>
 8003cf0:	e010      	b.n	8003d14 <prvAddCurrentTaskToDelayedList+0x88>
 8003cf2:	4b0e      	ldr	r3, [pc, #56]	; (8003d2c <prvAddCurrentTaskToDelayedList+0xa0>)
 8003cf4:	681a      	ldr	r2, [r3, #0]
 8003cf6:	4b0a      	ldr	r3, [pc, #40]	; (8003d20 <prvAddCurrentTaskToDelayedList+0x94>)
 8003cf8:	681b      	ldr	r3, [r3, #0]
 8003cfa:	3304      	adds	r3, #4
 8003cfc:	4619      	mov	r1, r3
 8003cfe:	4610      	mov	r0, r2
 8003d00:	f7fe fbff 	bl	8002502 <vListInsert>
 8003d04:	4b0a      	ldr	r3, [pc, #40]	; (8003d30 <prvAddCurrentTaskToDelayedList+0xa4>)
 8003d06:	681b      	ldr	r3, [r3, #0]
 8003d08:	68ba      	ldr	r2, [r7, #8]
 8003d0a:	429a      	cmp	r2, r3
 8003d0c:	d202      	bcs.n	8003d14 <prvAddCurrentTaskToDelayedList+0x88>
 8003d0e:	4a08      	ldr	r2, [pc, #32]	; (8003d30 <prvAddCurrentTaskToDelayedList+0xa4>)
 8003d10:	68bb      	ldr	r3, [r7, #8]
 8003d12:	6013      	str	r3, [r2, #0]
 8003d14:	bf00      	nop
 8003d16:	3710      	adds	r7, #16
 8003d18:	46bd      	mov	sp, r7
 8003d1a:	bd80      	pop	{r7, pc}
 8003d1c:	20000bc0 	.word	0x20000bc0
 8003d20:	200006e8 	.word	0x200006e8
 8003d24:	20000ba8 	.word	0x20000ba8
 8003d28:	20000b78 	.word	0x20000b78
 8003d2c:	20000b74 	.word	0x20000b74
 8003d30:	20000bdc 	.word	0x20000bdc

08003d34 <xTimerCreateTimerTask>:
 8003d34:	b580      	push	{r7, lr}
 8003d36:	b08a      	sub	sp, #40	; 0x28
 8003d38:	af04      	add	r7, sp, #16
 8003d3a:	2300      	movs	r3, #0
 8003d3c:	617b      	str	r3, [r7, #20]
 8003d3e:	f000 fb07 	bl	8004350 <prvCheckForValidListAndQueue>
 8003d42:	4b1c      	ldr	r3, [pc, #112]	; (8003db4 <xTimerCreateTimerTask+0x80>)
 8003d44:	681b      	ldr	r3, [r3, #0]
 8003d46:	2b00      	cmp	r3, #0
 8003d48:	d021      	beq.n	8003d8e <xTimerCreateTimerTask+0x5a>
 8003d4a:	2300      	movs	r3, #0
 8003d4c:	60fb      	str	r3, [r7, #12]
 8003d4e:	2300      	movs	r3, #0
 8003d50:	60bb      	str	r3, [r7, #8]
 8003d52:	1d3a      	adds	r2, r7, #4
 8003d54:	f107 0108 	add.w	r1, r7, #8
 8003d58:	f107 030c 	add.w	r3, r7, #12
 8003d5c:	4618      	mov	r0, r3
 8003d5e:	f7fe fb65 	bl	800242c <vApplicationGetTimerTaskMemory>
 8003d62:	6879      	ldr	r1, [r7, #4]
 8003d64:	68bb      	ldr	r3, [r7, #8]
 8003d66:	68fa      	ldr	r2, [r7, #12]
 8003d68:	9202      	str	r2, [sp, #8]
 8003d6a:	9301      	str	r3, [sp, #4]
 8003d6c:	2302      	movs	r3, #2
 8003d6e:	9300      	str	r3, [sp, #0]
 8003d70:	2300      	movs	r3, #0
 8003d72:	460a      	mov	r2, r1
 8003d74:	4910      	ldr	r1, [pc, #64]	; (8003db8 <xTimerCreateTimerTask+0x84>)
 8003d76:	4811      	ldr	r0, [pc, #68]	; (8003dbc <xTimerCreateTimerTask+0x88>)
 8003d78:	f7ff f912 	bl	8002fa0 <xTaskCreateStatic>
 8003d7c:	4603      	mov	r3, r0
 8003d7e:	4a10      	ldr	r2, [pc, #64]	; (8003dc0 <xTimerCreateTimerTask+0x8c>)
 8003d80:	6013      	str	r3, [r2, #0]
 8003d82:	4b0f      	ldr	r3, [pc, #60]	; (8003dc0 <xTimerCreateTimerTask+0x8c>)
 8003d84:	681b      	ldr	r3, [r3, #0]
 8003d86:	2b00      	cmp	r3, #0
 8003d88:	d001      	beq.n	8003d8e <xTimerCreateTimerTask+0x5a>
 8003d8a:	2301      	movs	r3, #1
 8003d8c:	617b      	str	r3, [r7, #20]
 8003d8e:	697b      	ldr	r3, [r7, #20]
 8003d90:	2b00      	cmp	r3, #0
 8003d92:	d10a      	bne.n	8003daa <xTimerCreateTimerTask+0x76>
 8003d94:	f04f 0350 	mov.w	r3, #80	; 0x50
 8003d98:	f383 8811 	msr	BASEPRI, r3
 8003d9c:	f3bf 8f6f 	isb	sy
 8003da0:	f3bf 8f4f 	dsb	sy
 8003da4:	613b      	str	r3, [r7, #16]
 8003da6:	bf00      	nop
 8003da8:	e7fe      	b.n	8003da8 <xTimerCreateTimerTask+0x74>
 8003daa:	697b      	ldr	r3, [r7, #20]
 8003dac:	4618      	mov	r0, r3
 8003dae:	3718      	adds	r7, #24
 8003db0:	46bd      	mov	sp, r7
 8003db2:	bd80      	pop	{r7, pc}
 8003db4:	20000c18 	.word	0x20000c18
 8003db8:	08004cfc 	.word	0x08004cfc
 8003dbc:	08003ef9 	.word	0x08003ef9
 8003dc0:	20000c1c 	.word	0x20000c1c

08003dc4 <xTimerGenericCommand>:
 8003dc4:	b580      	push	{r7, lr}
 8003dc6:	b08a      	sub	sp, #40	; 0x28
 8003dc8:	af00      	add	r7, sp, #0
 8003dca:	60f8      	str	r0, [r7, #12]
 8003dcc:	60b9      	str	r1, [r7, #8]
 8003dce:	607a      	str	r2, [r7, #4]
 8003dd0:	603b      	str	r3, [r7, #0]
 8003dd2:	2300      	movs	r3, #0
 8003dd4:	627b      	str	r3, [r7, #36]	; 0x24
 8003dd6:	68fb      	ldr	r3, [r7, #12]
 8003dd8:	2b00      	cmp	r3, #0
 8003dda:	d10a      	bne.n	8003df2 <xTimerGenericCommand+0x2e>
 8003ddc:	f04f 0350 	mov.w	r3, #80	; 0x50
 8003de0:	f383 8811 	msr	BASEPRI, r3
 8003de4:	f3bf 8f6f 	isb	sy
 8003de8:	f3bf 8f4f 	dsb	sy
 8003dec:	623b      	str	r3, [r7, #32]
 8003dee:	bf00      	nop
 8003df0:	e7fe      	b.n	8003df0 <xTimerGenericCommand+0x2c>
 8003df2:	4b1a      	ldr	r3, [pc, #104]	; (8003e5c <xTimerGenericCommand+0x98>)
 8003df4:	681b      	ldr	r3, [r3, #0]
 8003df6:	2b00      	cmp	r3, #0
 8003df8:	d02a      	beq.n	8003e50 <xTimerGenericCommand+0x8c>
 8003dfa:	68bb      	ldr	r3, [r7, #8]
 8003dfc:	613b      	str	r3, [r7, #16]
 8003dfe:	687b      	ldr	r3, [r7, #4]
 8003e00:	617b      	str	r3, [r7, #20]
 8003e02:	68fb      	ldr	r3, [r7, #12]
 8003e04:	61bb      	str	r3, [r7, #24]
 8003e06:	68bb      	ldr	r3, [r7, #8]
 8003e08:	2b05      	cmp	r3, #5
 8003e0a:	dc18      	bgt.n	8003e3e <xTimerGenericCommand+0x7a>
 8003e0c:	f7ff feb2 	bl	8003b74 <xTaskGetSchedulerState>
 8003e10:	4603      	mov	r3, r0
 8003e12:	2b02      	cmp	r3, #2
 8003e14:	d109      	bne.n	8003e2a <xTimerGenericCommand+0x66>
 8003e16:	4b11      	ldr	r3, [pc, #68]	; (8003e5c <xTimerGenericCommand+0x98>)
 8003e18:	6818      	ldr	r0, [r3, #0]
 8003e1a:	f107 0110 	add.w	r1, r7, #16
 8003e1e:	2300      	movs	r3, #0
 8003e20:	6b3a      	ldr	r2, [r7, #48]	; 0x30
 8003e22:	f7fe fcd5 	bl	80027d0 <xQueueGenericSend>
 8003e26:	6278      	str	r0, [r7, #36]	; 0x24
 8003e28:	e012      	b.n	8003e50 <xTimerGenericCommand+0x8c>
 8003e2a:	4b0c      	ldr	r3, [pc, #48]	; (8003e5c <xTimerGenericCommand+0x98>)
 8003e2c:	6818      	ldr	r0, [r3, #0]
 8003e2e:	f107 0110 	add.w	r1, r7, #16
 8003e32:	2300      	movs	r3, #0
 8003e34:	2200      	movs	r2, #0
 8003e36:	f7fe fccb 	bl	80027d0 <xQueueGenericSend>
 8003e3a:	6278      	str	r0, [r7, #36]	; 0x24
 8003e3c:	e008      	b.n	8003e50 <xTimerGenericCommand+0x8c>
 8003e3e:	4b07      	ldr	r3, [pc, #28]	; (8003e5c <xTimerGenericCommand+0x98>)
 8003e40:	6818      	ldr	r0, [r3, #0]
 8003e42:	f107 0110 	add.w	r1, r7, #16
 8003e46:	2300      	movs	r3, #0
 8003e48:	683a      	ldr	r2, [r7, #0]
 8003e4a:	f7fe fdbf 	bl	80029cc <xQueueGenericSendFromISR>
 8003e4e:	6278      	str	r0, [r7, #36]	; 0x24
 8003e50:	6a7b      	ldr	r3, [r7, #36]	; 0x24
 8003e52:	4618      	mov	r0, r3
 8003e54:	3728      	adds	r7, #40	; 0x28
 8003e56:	46bd      	mov	sp, r7
 8003e58:	bd80      	pop	{r7, pc}
 8003e5a:	bf00      	nop
 8003e5c:	20000c18 	.word	0x20000c18

08003e60 <prvProcessExpiredTimer>:
 8003e60:	b580      	push	{r7, lr}
 8003e62:	b088      	sub	sp, #32
 8003e64:	af02      	add	r7, sp, #8
 8003e66:	6078      	str	r0, [r7, #4]
 8003e68:	6039      	str	r1, [r7, #0]
 8003e6a:	4b22      	ldr	r3, [pc, #136]	; (8003ef4 <prvProcessExpiredTimer+0x94>)
 8003e6c:	681b      	ldr	r3, [r3, #0]
 8003e6e:	68db      	ldr	r3, [r3, #12]
 8003e70:	68db      	ldr	r3, [r3, #12]
 8003e72:	617b      	str	r3, [r7, #20]
 8003e74:	697b      	ldr	r3, [r7, #20]
 8003e76:	3304      	adds	r3, #4
 8003e78:	4618      	mov	r0, r3
 8003e7a:	f7fe fb7b 	bl	8002574 <uxListRemove>
 8003e7e:	697b      	ldr	r3, [r7, #20]
 8003e80:	f893 3028 	ldrb.w	r3, [r3, #40]	; 0x28
 8003e84:	f003 0304 	and.w	r3, r3, #4
 8003e88:	2b00      	cmp	r3, #0
 8003e8a:	d022      	beq.n	8003ed2 <prvProcessExpiredTimer+0x72>
 8003e8c:	697b      	ldr	r3, [r7, #20]
 8003e8e:	699a      	ldr	r2, [r3, #24]
 8003e90:	687b      	ldr	r3, [r7, #4]
 8003e92:	18d1      	adds	r1, r2, r3
 8003e94:	687b      	ldr	r3, [r7, #4]
 8003e96:	683a      	ldr	r2, [r7, #0]
 8003e98:	6978      	ldr	r0, [r7, #20]
 8003e9a:	f000 f8d1 	bl	8004040 <prvInsertTimerInActiveList>
 8003e9e:	4603      	mov	r3, r0
 8003ea0:	2b00      	cmp	r3, #0
 8003ea2:	d01f      	beq.n	8003ee4 <prvProcessExpiredTimer+0x84>
 8003ea4:	2300      	movs	r3, #0
 8003ea6:	9300      	str	r3, [sp, #0]
 8003ea8:	2300      	movs	r3, #0
 8003eaa:	687a      	ldr	r2, [r7, #4]
 8003eac:	2100      	movs	r1, #0
 8003eae:	6978      	ldr	r0, [r7, #20]
 8003eb0:	f7ff ff88 	bl	8003dc4 <xTimerGenericCommand>
 8003eb4:	6138      	str	r0, [r7, #16]
 8003eb6:	693b      	ldr	r3, [r7, #16]
 8003eb8:	2b00      	cmp	r3, #0
 8003eba:	d113      	bne.n	8003ee4 <prvProcessExpiredTimer+0x84>
 8003ebc:	f04f 0350 	mov.w	r3, #80	; 0x50
 8003ec0:	f383 8811 	msr	BASEPRI, r3
 8003ec4:	f3bf 8f6f 	isb	sy
 8003ec8:	f3bf 8f4f 	dsb	sy
 8003ecc:	60fb      	str	r3, [r7, #12]
 8003ece:	bf00      	nop
 8003ed0:	e7fe      	b.n	8003ed0 <prvProcessExpiredTimer+0x70>
 8003ed2:	697b      	ldr	r3, [r7, #20]
 8003ed4:	f893 3028 	ldrb.w	r3, [r3, #40]	; 0x28
 8003ed8:	f023 0301 	bic.w	r3, r3, #1
 8003edc:	b2da      	uxtb	r2, r3
 8003ede:	697b      	ldr	r3, [r7, #20]
 8003ee0:	f883 2028 	strb.w	r2, [r3, #40]	; 0x28
 8003ee4:	697b      	ldr	r3, [r7, #20]
 8003ee6:	6a1b      	ldr	r3, [r3, #32]
 8003ee8:	6978      	ldr	r0, [r7, #20]
 8003eea:	4798      	blx	r3
 8003eec:	bf00      	nop
 8003eee:	3718      	adds	r7, #24
 8003ef0:	46bd      	mov	sp, r7
 8003ef2:	bd80      	pop	{r7, pc}
 8003ef4:	20000c10 	.word	0x20000c10

08003ef8 <prvTimerTask>:
 8003ef8:	b580      	push	{r7, lr}
 8003efa:	b084      	sub	sp, #16
 8003efc:	af00      	add	r7, sp, #0
 8003efe:	6078      	str	r0, [r7, #4]
 8003f00:	f107 0308 	add.w	r3, r7, #8
 8003f04:	4618      	mov	r0, r3
 8003f06:	f000 f857 	bl	8003fb8 <prvGetNextExpireTime>
 8003f0a:	60f8      	str	r0, [r7, #12]
 8003f0c:	68bb      	ldr	r3, [r7, #8]
 8003f0e:	4619      	mov	r1, r3
 8003f10:	68f8      	ldr	r0, [r7, #12]
 8003f12:	f000 f803 	bl	8003f1c <prvProcessTimerOrBlockTask>
 8003f16:	f000 f8d5 	bl	80040c4 <prvProcessReceivedCommands>
 8003f1a:	e7f1      	b.n	8003f00 <prvTimerTask+0x8>

08003f1c <prvProcessTimerOrBlockTask>:
 8003f1c:	b580      	push	{r7, lr}
 8003f1e:	b084      	sub	sp, #16
 8003f20:	af00      	add	r7, sp, #0
 8003f22:	6078      	str	r0, [r7, #4]
 8003f24:	6039      	str	r1, [r7, #0]
 8003f26:	f7ff fa43 	bl	80033b0 <vTaskSuspendAll>
 8003f2a:	f107 0308 	add.w	r3, r7, #8
 8003f2e:	4618      	mov	r0, r3
 8003f30:	f000 f866 	bl	8004000 <prvSampleTimeNow>
 8003f34:	60f8      	str	r0, [r7, #12]
 8003f36:	68bb      	ldr	r3, [r7, #8]
 8003f38:	2b00      	cmp	r3, #0
 8003f3a:	d130      	bne.n	8003f9e <prvProcessTimerOrBlockTask+0x82>
 8003f3c:	683b      	ldr	r3, [r7, #0]
 8003f3e:	2b00      	cmp	r3, #0
 8003f40:	d10a      	bne.n	8003f58 <prvProcessTimerOrBlockTask+0x3c>
 8003f42:	687a      	ldr	r2, [r7, #4]
 8003f44:	68fb      	ldr	r3, [r7, #12]
 8003f46:	429a      	cmp	r2, r3
 8003f48:	d806      	bhi.n	8003f58 <prvProcessTimerOrBlockTask+0x3c>
 8003f4a:	f7ff fa3f 	bl	80033cc <xTaskResumeAll>
 8003f4e:	68f9      	ldr	r1, [r7, #12]
 8003f50:	6878      	ldr	r0, [r7, #4]
 8003f52:	f7ff ff85 	bl	8003e60 <prvProcessExpiredTimer>
 8003f56:	e024      	b.n	8003fa2 <prvProcessTimerOrBlockTask+0x86>
 8003f58:	683b      	ldr	r3, [r7, #0]
 8003f5a:	2b00      	cmp	r3, #0
 8003f5c:	d008      	beq.n	8003f70 <prvProcessTimerOrBlockTask+0x54>
 8003f5e:	4b13      	ldr	r3, [pc, #76]	; (8003fac <prvProcessTimerOrBlockTask+0x90>)
 8003f60:	681b      	ldr	r3, [r3, #0]
 8003f62:	681b      	ldr	r3, [r3, #0]
 8003f64:	2b00      	cmp	r3, #0
 8003f66:	d101      	bne.n	8003f6c <prvProcessTimerOrBlockTask+0x50>
 8003f68:	2301      	movs	r3, #1
 8003f6a:	e000      	b.n	8003f6e <prvProcessTimerOrBlockTask+0x52>
 8003f6c:	2300      	movs	r3, #0
 8003f6e:	603b      	str	r3, [r7, #0]
 8003f70:	4b0f      	ldr	r3, [pc, #60]	; (8003fb0 <prvProcessTimerOrBlockTask+0x94>)
 8003f72:	6818      	ldr	r0, [r3, #0]
 8003f74:	687a      	ldr	r2, [r7, #4]
 8003f76:	68fb      	ldr	r3, [r7, #12]
 8003f78:	1ad3      	subs	r3, r2, r3
 8003f7a:	683a      	ldr	r2, [r7, #0]
 8003f7c:	4619      	mov	r1, r3
 8003f7e:	f7fe ffdb 	bl	8002f38 <vQueueWaitForMessageRestricted>
 8003f82:	f7ff fa23 	bl	80033cc <xTaskResumeAll>
 8003f86:	4603      	mov	r3, r0
 8003f88:	2b00      	cmp	r3, #0
 8003f8a:	d10a      	bne.n	8003fa2 <prvProcessTimerOrBlockTask+0x86>
 8003f8c:	4b09      	ldr	r3, [pc, #36]	; (8003fb4 <prvProcessTimerOrBlockTask+0x98>)
 8003f8e:	f04f 5280 	mov.w	r2, #268435456	; 0x10000000
 8003f92:	601a      	str	r2, [r3, #0]
 8003f94:	f3bf 8f4f 	dsb	sy
 8003f98:	f3bf 8f6f 	isb	sy
 8003f9c:	e001      	b.n	8003fa2 <prvProcessTimerOrBlockTask+0x86>
 8003f9e:	f7ff fa15 	bl	80033cc <xTaskResumeAll>
 8003fa2:	bf00      	nop
 8003fa4:	3710      	adds	r7, #16
 8003fa6:	46bd      	mov	sp, r7
 8003fa8:	bd80      	pop	{r7, pc}
 8003faa:	bf00      	nop
 8003fac:	20000c14 	.word	0x20000c14
 8003fb0:	20000c18 	.word	0x20000c18
 8003fb4:	e000ed04 	.word	0xe000ed04

08003fb8 <prvGetNextExpireTime>:
 8003fb8:	b480      	push	{r7}
 8003fba:	b085      	sub	sp, #20
 8003fbc:	af00      	add	r7, sp, #0
 8003fbe:	6078      	str	r0, [r7, #4]
 8003fc0:	4b0e      	ldr	r3, [pc, #56]	; (8003ffc <prvGetNextExpireTime+0x44>)
 8003fc2:	681b      	ldr	r3, [r3, #0]
 8003fc4:	681b      	ldr	r3, [r3, #0]
 8003fc6:	2b00      	cmp	r3, #0
 8003fc8:	d101      	bne.n	8003fce <prvGetNextExpireTime+0x16>
 8003fca:	2201      	movs	r2, #1
 8003fcc:	e000      	b.n	8003fd0 <prvGetNextExpireTime+0x18>
 8003fce:	2200      	movs	r2, #0
 8003fd0:	687b      	ldr	r3, [r7, #4]
 8003fd2:	601a      	str	r2, [r3, #0]
 8003fd4:	687b      	ldr	r3, [r7, #4]
 8003fd6:	681b      	ldr	r3, [r3, #0]
 8003fd8:	2b00      	cmp	r3, #0
 8003fda:	d105      	bne.n	8003fe8 <prvGetNextExpireTime+0x30>
 8003fdc:	4b07      	ldr	r3, [pc, #28]	; (8003ffc <prvGetNextExpireTime+0x44>)
 8003fde:	681b      	ldr	r3, [r3, #0]
 8003fe0:	68db      	ldr	r3, [r3, #12]
 8003fe2:	681b      	ldr	r3, [r3, #0]
 8003fe4:	60fb      	str	r3, [r7, #12]
 8003fe6:	e001      	b.n	8003fec <prvGetNextExpireTime+0x34>
 8003fe8:	2300      	movs	r3, #0
 8003fea:	60fb      	str	r3, [r7, #12]
 8003fec:	68fb      	ldr	r3, [r7, #12]
 8003fee:	4618      	mov	r0, r3
 8003ff0:	3714      	adds	r7, #20
 8003ff2:	46bd      	mov	sp, r7
 8003ff4:	f85d 7b04 	ldr.w	r7, [sp], #4
 8003ff8:	4770      	bx	lr
 8003ffa:	bf00      	nop
 8003ffc:	20000c10 	.word	0x20000c10

08004000 <prvSampleTimeNow>:
 8004000:	b580      	push	{r7, lr}
 8004002:	b084      	sub	sp, #16
 8004004:	af00      	add	r7, sp, #0
 8004006:	6078      	str	r0, [r7, #4]
 8004008:	f7ff fa7e 	bl	8003508 <xTaskGetTickCount>
 800400c:	60f8      	str	r0, [r7, #12]
 800400e:	4b0b      	ldr	r3, [pc, #44]	; (800403c <prvSampleTimeNow+0x3c>)
 8004010:	681b      	ldr	r3, [r3, #0]
 8004012:	68fa      	ldr	r2, [r7, #12]
 8004014:	429a      	cmp	r2, r3
 8004016:	d205      	bcs.n	8004024 <prvSampleTimeNow+0x24>
 8004018:	f000 f936 	bl	8004288 <prvSwitchTimerLists>
 800401c:	687b      	ldr	r3, [r7, #4]
 800401e:	2201      	movs	r2, #1
 8004020:	601a      	str	r2, [r3, #0]
 8004022:	e002      	b.n	800402a <prvSampleTimeNow+0x2a>
 8004024:	687b      	ldr	r3, [r7, #4]
 8004026:	2200      	movs	r2, #0
 8004028:	601a      	str	r2, [r3, #0]
 800402a:	4a04      	ldr	r2, [pc, #16]	; (800403c <prvSampleTimeNow+0x3c>)
 800402c:	68fb      	ldr	r3, [r7, #12]
 800402e:	6013      	str	r3, [r2, #0]
 8004030:	68fb      	ldr	r3, [r7, #12]
 8004032:	4618      	mov	r0, r3
 8004034:	3710      	adds	r7, #16
 8004036:	46bd      	mov	sp, r7
 8004038:	bd80      	pop	{r7, pc}
 800403a:	bf00      	nop
 800403c:	20000c20 	.word	0x20000c20

08004040 <prvInsertTimerInActiveList>:
 8004040:	b580      	push	{r7, lr}
 8004042:	b086      	sub	sp, #24
 8004044:	af00      	add	r7, sp, #0
 8004046:	60f8      	str	r0, [r7, #12]
 8004048:	60b9      	str	r1, [r7, #8]
 800404a:	607a      	str	r2, [r7, #4]
 800404c:	603b      	str	r3, [r7, #0]
 800404e:	2300      	movs	r3, #0
 8004050:	617b      	str	r3, [r7, #20]
 8004052:	68fb      	ldr	r3, [r7, #12]
 8004054:	68ba      	ldr	r2, [r7, #8]
 8004056:	605a      	str	r2, [r3, #4]
 8004058:	68fb      	ldr	r3, [r7, #12]
 800405a:	68fa      	ldr	r2, [r7, #12]
 800405c:	611a      	str	r2, [r3, #16]
 800405e:	68ba      	ldr	r2, [r7, #8]
 8004060:	687b      	ldr	r3, [r7, #4]
 8004062:	429a      	cmp	r2, r3
 8004064:	d812      	bhi.n	800408c <prvInsertTimerInActiveList+0x4c>
 8004066:	687a      	ldr	r2, [r7, #4]
 8004068:	683b      	ldr	r3, [r7, #0]
 800406a:	1ad2      	subs	r2, r2, r3
 800406c:	68fb      	ldr	r3, [r7, #12]
 800406e:	699b      	ldr	r3, [r3, #24]
 8004070:	429a      	cmp	r2, r3
 8004072:	d302      	bcc.n	800407a <prvInsertTimerInActiveList+0x3a>
 8004074:	2301      	movs	r3, #1
 8004076:	617b      	str	r3, [r7, #20]
 8004078:	e01b      	b.n	80040b2 <prvInsertTimerInActiveList+0x72>
 800407a:	4b10      	ldr	r3, [pc, #64]	; (80040bc <prvInsertTimerInActiveList+0x7c>)
 800407c:	681a      	ldr	r2, [r3, #0]
 800407e:	68fb      	ldr	r3, [r7, #12]
 8004080:	3304      	adds	r3, #4
 8004082:	4619      	mov	r1, r3
 8004084:	4610      	mov	r0, r2
 8004086:	f7fe fa3c 	bl	8002502 <vListInsert>
 800408a:	e012      	b.n	80040b2 <prvInsertTimerInActiveList+0x72>
 800408c:	687a      	ldr	r2, [r7, #4]
 800408e:	683b      	ldr	r3, [r7, #0]
 8004090:	429a      	cmp	r2, r3
 8004092:	d206      	bcs.n	80040a2 <prvInsertTimerInActiveList+0x62>
 8004094:	68ba      	ldr	r2, [r7, #8]
 8004096:	683b      	ldr	r3, [r7, #0]
 8004098:	429a      	cmp	r2, r3
 800409a:	d302      	bcc.n	80040a2 <prvInsertTimerInActiveList+0x62>
 800409c:	2301      	movs	r3, #1
 800409e:	617b      	str	r3, [r7, #20]
 80040a0:	e007      	b.n	80040b2 <prvInsertTimerInActiveList+0x72>
 80040a2:	4b07      	ldr	r3, [pc, #28]	; (80040c0 <prvInsertTimerInActiveList+0x80>)
 80040a4:	681a      	ldr	r2, [r3, #0]
 80040a6:	68fb      	ldr	r3, [r7, #12]
 80040a8:	3304      	adds	r3, #4
 80040aa:	4619      	mov	r1, r3
 80040ac:	4610      	mov	r0, r2
 80040ae:	f7fe fa28 	bl	8002502 <vListInsert>
 80040b2:	697b      	ldr	r3, [r7, #20]
 80040b4:	4618      	mov	r0, r3
 80040b6:	3718      	adds	r7, #24
 80040b8:	46bd      	mov	sp, r7
 80040ba:	bd80      	pop	{r7, pc}
 80040bc:	20000c14 	.word	0x20000c14
 80040c0:	20000c10 	.word	0x20000c10

080040c4 <prvProcessReceivedCommands>:
 80040c4:	b580      	push	{r7, lr}
 80040c6:	b08e      	sub	sp, #56	; 0x38
 80040c8:	af02      	add	r7, sp, #8
 80040ca:	e0ca      	b.n	8004262 <prvProcessReceivedCommands+0x19e>
 80040cc:	687b      	ldr	r3, [r7, #4]
 80040ce:	2b00      	cmp	r3, #0
 80040d0:	da18      	bge.n	8004104 <prvProcessReceivedCommands+0x40>
 80040d2:	1d3b      	adds	r3, r7, #4
 80040d4:	3304      	adds	r3, #4
 80040d6:	62fb      	str	r3, [r7, #44]	; 0x2c
 80040d8:	6afb      	ldr	r3, [r7, #44]	; 0x2c
 80040da:	2b00      	cmp	r3, #0
 80040dc:	d10a      	bne.n	80040f4 <prvProcessReceivedCommands+0x30>
 80040de:	f04f 0350 	mov.w	r3, #80	; 0x50
 80040e2:	f383 8811 	msr	BASEPRI, r3
 80040e6:	f3bf 8f6f 	isb	sy
 80040ea:	f3bf 8f4f 	dsb	sy
 80040ee:	61fb      	str	r3, [r7, #28]
 80040f0:	bf00      	nop
 80040f2:	e7fe      	b.n	80040f2 <prvProcessReceivedCommands+0x2e>
 80040f4:	6afb      	ldr	r3, [r7, #44]	; 0x2c
 80040f6:	681b      	ldr	r3, [r3, #0]
 80040f8:	6afa      	ldr	r2, [r7, #44]	; 0x2c
 80040fa:	6850      	ldr	r0, [r2, #4]
 80040fc:	6afa      	ldr	r2, [r7, #44]	; 0x2c
 80040fe:	6892      	ldr	r2, [r2, #8]
 8004100:	4611      	mov	r1, r2
 8004102:	4798      	blx	r3
 8004104:	687b      	ldr	r3, [r7, #4]
 8004106:	2b00      	cmp	r3, #0
 8004108:	f2c0 80aa 	blt.w	8004260 <prvProcessReceivedCommands+0x19c>
 800410c:	68fb      	ldr	r3, [r7, #12]
 800410e:	62bb      	str	r3, [r7, #40]	; 0x28
 8004110:	6abb      	ldr	r3, [r7, #40]	; 0x28
 8004112:	695b      	ldr	r3, [r3, #20]
 8004114:	2b00      	cmp	r3, #0
 8004116:	d004      	beq.n	8004122 <prvProcessReceivedCommands+0x5e>
 8004118:	6abb      	ldr	r3, [r7, #40]	; 0x28
 800411a:	3304      	adds	r3, #4
 800411c:	4618      	mov	r0, r3
 800411e:	f7fe fa29 	bl	8002574 <uxListRemove>
 8004122:	463b      	mov	r3, r7
 8004124:	4618      	mov	r0, r3
 8004126:	f7ff ff6b 	bl	8004000 <prvSampleTimeNow>
 800412a:	6278      	str	r0, [r7, #36]	; 0x24
 800412c:	687b      	ldr	r3, [r7, #4]
 800412e:	2b09      	cmp	r3, #9
 8004130:	f200 8097 	bhi.w	8004262 <prvProcessReceivedCommands+0x19e>
 8004134:	a201      	add	r2, pc, #4	; (adr r2, 800413c <prvProcessReceivedCommands+0x78>)
 8004136:	f852 f023 	ldr.w	pc, [r2, r3, lsl #2]
 800413a:	bf00      	nop
 800413c:	08004165 	.word	0x08004165
 8004140:	08004165 	.word	0x08004165
 8004144:	08004165 	.word	0x08004165
 8004148:	080041d9 	.word	0x080041d9
 800414c:	080041ed 	.word	0x080041ed
 8004150:	08004237 	.word	0x08004237
 8004154:	08004165 	.word	0x08004165
 8004158:	08004165 	.word	0x08004165
 800415c:	080041d9 	.word	0x080041d9
 8004160:	080041ed 	.word	0x080041ed
 8004164:	6abb      	ldr	r3, [r7, #40]	; 0x28
 8004166:	f893 3028 	ldrb.w	r3, [r3, #40]	; 0x28
 800416a:	f043 0301 	orr.w	r3, r3, #1
 800416e:	b2da      	uxtb	r2, r3
 8004170:	6abb      	ldr	r3, [r7, #40]	; 0x28
 8004172:	f883 2028 	strb.w	r2, [r3, #40]	; 0x28
 8004176:	68ba      	ldr	r2, [r7, #8]
 8004178:	6abb      	ldr	r3, [r7, #40]	; 0x28
 800417a:	699b      	ldr	r3, [r3, #24]
 800417c:	18d1      	adds	r1, r2, r3
 800417e:	68bb      	ldr	r3, [r7, #8]
 8004180:	6a7a      	ldr	r2, [r7, #36]	; 0x24
 8004182:	6ab8      	ldr	r0, [r7, #40]	; 0x28
 8004184:	f7ff ff5c 	bl	8004040 <prvInsertTimerInActiveList>
 8004188:	4603      	mov	r3, r0
 800418a:	2b00      	cmp	r3, #0
 800418c:	d069      	beq.n	8004262 <prvProcessReceivedCommands+0x19e>
 800418e:	6abb      	ldr	r3, [r7, #40]	; 0x28
 8004190:	6a1b      	ldr	r3, [r3, #32]
 8004192:	6ab8      	ldr	r0, [r7, #40]	; 0x28
 8004194:	4798      	blx	r3
 8004196:	6abb      	ldr	r3, [r7, #40]	; 0x28
 8004198:	f893 3028 	ldrb.w	r3, [r3, #40]	; 0x28
 800419c:	f003 0304 	and.w	r3, r3, #4
 80041a0:	2b00      	cmp	r3, #0
 80041a2:	d05e      	beq.n	8004262 <prvProcessReceivedCommands+0x19e>
 80041a4:	68ba      	ldr	r2, [r7, #8]
 80041a6:	6abb      	ldr	r3, [r7, #40]	; 0x28
 80041a8:	699b      	ldr	r3, [r3, #24]
 80041aa:	441a      	add	r2, r3
 80041ac:	2300      	movs	r3, #0
 80041ae:	9300      	str	r3, [sp, #0]
 80041b0:	2300      	movs	r3, #0
 80041b2:	2100      	movs	r1, #0
 80041b4:	6ab8      	ldr	r0, [r7, #40]	; 0x28
 80041b6:	f7ff fe05 	bl	8003dc4 <xTimerGenericCommand>
 80041ba:	6238      	str	r0, [r7, #32]
 80041bc:	6a3b      	ldr	r3, [r7, #32]
 80041be:	2b00      	cmp	r3, #0
 80041c0:	d14f      	bne.n	8004262 <prvProcessReceivedCommands+0x19e>
 80041c2:	f04f 0350 	mov.w	r3, #80	; 0x50
 80041c6:	f383 8811 	msr	BASEPRI, r3
 80041ca:	f3bf 8f6f 	isb	sy
 80041ce:	f3bf 8f4f 	dsb	sy
 80041d2:	61bb      	str	r3, [r7, #24]
 80041d4:	bf00      	nop
 80041d6:	e7fe      	b.n	80041d6 <prvProcessReceivedCommands+0x112>
 80041d8:	6abb      	ldr	r3, [r7, #40]	; 0x28
 80041da:	f893 3028 	ldrb.w	r3, [r3, #40]	; 0x28
 80041de:	f023 0301 	bic.w	r3, r3, #1
 80041e2:	b2da      	uxtb	r2, r3
 80041e4:	6abb      	ldr	r3, [r7, #40]	; 0x28
 80041e6:	f883 2028 	strb.w	r2, [r3, #40]	; 0x28
 80041ea:	e03a      	b.n	8004262 <prvProcessReceivedCommands+0x19e>
 80041ec:	6abb      	ldr	r3, [r7, #40]	; 0x28
 80041ee:	f893 3028 	ldrb.w	r3, [r3, #40]	; 0x28
 80041f2:	f043 0301 	orr.w	r3, r3, #1
 80041f6:	b2da      	uxtb	r2, r3
 80041f8:	6abb      	ldr	r3, [r7, #40]	; 0x28
 80041fa:	f883 2028 	strb.w	r2, [r3, #40]	; 0x28
 80041fe:	68ba      	ldr	r2, [r7, #8]
 8004200:	6abb      	ldr	r3, [r7, #40]	; 0x28
 8004202:	619a      	str	r2, [r3, #24]
 8004204:	6abb      	ldr	r3, [r7, #40]	; 0x28
 8004206:	699b      	ldr	r3, [r3, #24]
 8004208:	2b00      	cmp	r3, #0
 800420a:	d10a      	bne.n	8004222 <prvProcessReceivedCommands+0x15e>
 800420c:	f04f 0350 	mov.w	r3, #80	; 0x50
 8004210:	f383 8811 	msr	BASEPRI, r3
 8004214:	f3bf 8f6f 	isb	sy
 8004218:	f3bf 8f4f 	dsb	sy
 800421c:	617b      	str	r3, [r7, #20]
 800421e:	bf00      	nop
 8004220:	e7fe      	b.n	8004220 <prvProcessReceivedCommands+0x15c>
 8004222:	6abb      	ldr	r3, [r7, #40]	; 0x28
 8004224:	699a      	ldr	r2, [r3, #24]
 8004226:	6a7b      	ldr	r3, [r7, #36]	; 0x24
 8004228:	18d1      	adds	r1, r2, r3
 800422a:	6a7b      	ldr	r3, [r7, #36]	; 0x24
 800422c:	6a7a      	ldr	r2, [r7, #36]	; 0x24
 800422e:	6ab8      	ldr	r0, [r7, #40]	; 0x28
 8004230:	f7ff ff06 	bl	8004040 <prvInsertTimerInActiveList>
 8004234:	e015      	b.n	8004262 <prvProcessReceivedCommands+0x19e>
 8004236:	6abb      	ldr	r3, [r7, #40]	; 0x28
 8004238:	f893 3028 	ldrb.w	r3, [r3, #40]	; 0x28
 800423c:	f003 0302 	and.w	r3, r3, #2
 8004240:	2b00      	cmp	r3, #0
 8004242:	d103      	bne.n	800424c <prvProcessReceivedCommands+0x188>
 8004244:	6ab8      	ldr	r0, [r7, #40]	; 0x28
 8004246:	f000 fbdb 	bl	8004a00 <vPortFree>
 800424a:	e00a      	b.n	8004262 <prvProcessReceivedCommands+0x19e>
 800424c:	6abb      	ldr	r3, [r7, #40]	; 0x28
 800424e:	f893 3028 	ldrb.w	r3, [r3, #40]	; 0x28
 8004252:	f023 0301 	bic.w	r3, r3, #1
 8004256:	b2da      	uxtb	r2, r3
 8004258:	6abb      	ldr	r3, [r7, #40]	; 0x28
 800425a:	f883 2028 	strb.w	r2, [r3, #40]	; 0x28
 800425e:	e000      	b.n	8004262 <prvProcessReceivedCommands+0x19e>
 8004260:	bf00      	nop
 8004262:	4b08      	ldr	r3, [pc, #32]	; (8004284 <prvProcessReceivedCommands+0x1c0>)
 8004264:	681b      	ldr	r3, [r3, #0]
 8004266:	1d39      	adds	r1, r7, #4
 8004268:	2200      	movs	r2, #0
 800426a:	4618      	mov	r0, r3
 800426c:	f7fe fc4a 	bl	8002b04 <xQueueReceive>
 8004270:	4603      	mov	r3, r0
 8004272:	2b00      	cmp	r3, #0
 8004274:	f47f af2a 	bne.w	80040cc <prvProcessReceivedCommands+0x8>
 8004278:	bf00      	nop
 800427a:	bf00      	nop
 800427c:	3730      	adds	r7, #48	; 0x30
 800427e:	46bd      	mov	sp, r7
 8004280:	bd80      	pop	{r7, pc}
 8004282:	bf00      	nop
 8004284:	20000c18 	.word	0x20000c18

08004288 <prvSwitchTimerLists>:
 8004288:	b580      	push	{r7, lr}
 800428a:	b088      	sub	sp, #32
 800428c:	af02      	add	r7, sp, #8
 800428e:	e048      	b.n	8004322 <prvSwitchTimerLists+0x9a>
 8004290:	4b2d      	ldr	r3, [pc, #180]	; (8004348 <prvSwitchTimerLists+0xc0>)
 8004292:	681b      	ldr	r3, [r3, #0]
 8004294:	68db      	ldr	r3, [r3, #12]
 8004296:	681b      	ldr	r3, [r3, #0]
 8004298:	613b      	str	r3, [r7, #16]
 800429a:	4b2b      	ldr	r3, [pc, #172]	; (8004348 <prvSwitchTimerLists+0xc0>)
 800429c:	681b      	ldr	r3, [r3, #0]
 800429e:	68db      	ldr	r3, [r3, #12]
 80042a0:	68db      	ldr	r3, [r3, #12]
 80042a2:	60fb      	str	r3, [r7, #12]
 80042a4:	68fb      	ldr	r3, [r7, #12]
 80042a6:	3304      	adds	r3, #4
 80042a8:	4618      	mov	r0, r3
 80042aa:	f7fe f963 	bl	8002574 <uxListRemove>
 80042ae:	68fb      	ldr	r3, [r7, #12]
 80042b0:	6a1b      	ldr	r3, [r3, #32]
 80042b2:	68f8      	ldr	r0, [r7, #12]
 80042b4:	4798      	blx	r3
 80042b6:	68fb      	ldr	r3, [r7, #12]
 80042b8:	f893 3028 	ldrb.w	r3, [r3, #40]	; 0x28
 80042bc:	f003 0304 	and.w	r3, r3, #4
 80042c0:	2b00      	cmp	r3, #0
 80042c2:	d02e      	beq.n	8004322 <prvSwitchTimerLists+0x9a>
 80042c4:	68fb      	ldr	r3, [r7, #12]
 80042c6:	699b      	ldr	r3, [r3, #24]
 80042c8:	693a      	ldr	r2, [r7, #16]
 80042ca:	4413      	add	r3, r2
 80042cc:	60bb      	str	r3, [r7, #8]
 80042ce:	68ba      	ldr	r2, [r7, #8]
 80042d0:	693b      	ldr	r3, [r7, #16]
 80042d2:	429a      	cmp	r2, r3
 80042d4:	d90e      	bls.n	80042f4 <prvSwitchTimerLists+0x6c>
 80042d6:	68fb      	ldr	r3, [r7, #12]
 80042d8:	68ba      	ldr	r2, [r7, #8]
 80042da:	605a      	str	r2, [r3, #4]
 80042dc:	68fb      	ldr	r3, [r7, #12]
 80042de:	68fa      	ldr	r2, [r7, #12]
 80042e0:	611a      	str	r2, [r3, #16]
 80042e2:	4b19      	ldr	r3, [pc, #100]	; (8004348 <prvSwitchTimerLists+0xc0>)
 80042e4:	681a      	ldr	r2, [r3, #0]
 80042e6:	68fb      	ldr	r3, [r7, #12]
 80042e8:	3304      	adds	r3, #4
 80042ea:	4619      	mov	r1, r3
 80042ec:	4610      	mov	r0, r2
 80042ee:	f7fe f908 	bl	8002502 <vListInsert>
 80042f2:	e016      	b.n	8004322 <prvSwitchTimerLists+0x9a>
 80042f4:	2300      	movs	r3, #0
 80042f6:	9300      	str	r3, [sp, #0]
 80042f8:	2300      	movs	r3, #0
 80042fa:	693a      	ldr	r2, [r7, #16]
 80042fc:	2100      	movs	r1, #0
 80042fe:	68f8      	ldr	r0, [r7, #12]
 8004300:	f7ff fd60 	bl	8003dc4 <xTimerGenericCommand>
 8004304:	6078      	str	r0, [r7, #4]
 8004306:	687b      	ldr	r3, [r7, #4]
 8004308:	2b00      	cmp	r3, #0
 800430a:	d10a      	bne.n	8004322 <prvSwitchTimerLists+0x9a>
 800430c:	f04f 0350 	mov.w	r3, #80	; 0x50
 8004310:	f383 8811 	msr	BASEPRI, r3
 8004314:	f3bf 8f6f 	isb	sy
 8004318:	f3bf 8f4f 	dsb	sy
 800431c:	603b      	str	r3, [r7, #0]
 800431e:	bf00      	nop
 8004320:	e7fe      	b.n	8004320 <prvSwitchTimerLists+0x98>
 8004322:	4b09      	ldr	r3, [pc, #36]	; (8004348 <prvSwitchTimerLists+0xc0>)
 8004324:	681b      	ldr	r3, [r3, #0]
 8004326:	681b      	ldr	r3, [r3, #0]
 8004328:	2b00      	cmp	r3, #0
 800432a:	d1b1      	bne.n	8004290 <prvSwitchTimerLists+0x8>
 800432c:	4b06      	ldr	r3, [pc, #24]	; (8004348 <prvSwitchTimerLists+0xc0>)
 800432e:	681b      	ldr	r3, [r3, #0]
 8004330:	617b      	str	r3, [r7, #20]
 8004332:	4b06      	ldr	r3, [pc, #24]	; (800434c <prvSwitchTimerLists+0xc4>)
 8004334:	681b      	ldr	r3, [r3, #0]
 8004336:	4a04      	ldr	r2, [pc, #16]	; (8004348 <prvSwitchTimerLists+0xc0>)
 8004338:	6013      	str	r3, [r2, #0]
 800433a:	4a04      	ldr	r2, [pc, #16]	; (800434c <prvSwitchTimerLists+0xc4>)
 800433c:	697b      	ldr	r3, [r7, #20]
 800433e:	6013      	str	r3, [r2, #0]
 8004340:	bf00      	nop
 8004342:	3718      	adds	r7, #24
 8004344:	46bd      	mov	sp, r7
 8004346:	bd80      	pop	{r7, pc}
 8004348:	20000c10 	.word	0x20000c10
 800434c:	20000c14 	.word	0x20000c14

08004350 <prvCheckForValidListAndQueue>:
 8004350:	b580      	push	{r7, lr}
 8004352:	b082      	sub	sp, #8
 8004354:	af02      	add	r7, sp, #8
 8004356:	f000 f965 	bl	8004624 <vPortEnterCritical>
 800435a:	4b15      	ldr	r3, [pc, #84]	; (80043b0 <prvCheckForValidListAndQueue+0x60>)
 800435c:	681b      	ldr	r3, [r3, #0]
 800435e:	2b00      	cmp	r3, #0
 8004360:	d120      	bne.n	80043a4 <prvCheckForValidListAndQueue+0x54>
 8004362:	4814      	ldr	r0, [pc, #80]	; (80043b4 <prvCheckForValidListAndQueue+0x64>)
 8004364:	f7fe f87c 	bl	8002460 <vListInitialise>
 8004368:	4813      	ldr	r0, [pc, #76]	; (80043b8 <prvCheckForValidListAndQueue+0x68>)
 800436a:	f7fe f879 	bl	8002460 <vListInitialise>
 800436e:	4b13      	ldr	r3, [pc, #76]	; (80043bc <prvCheckForValidListAndQueue+0x6c>)
 8004370:	4a10      	ldr	r2, [pc, #64]	; (80043b4 <prvCheckForValidListAndQueue+0x64>)
 8004372:	601a      	str	r2, [r3, #0]
 8004374:	4b12      	ldr	r3, [pc, #72]	; (80043c0 <prvCheckForValidListAndQueue+0x70>)
 8004376:	4a10      	ldr	r2, [pc, #64]	; (80043b8 <prvCheckForValidListAndQueue+0x68>)
 8004378:	601a      	str	r2, [r3, #0]
 800437a:	2300      	movs	r3, #0
 800437c:	9300      	str	r3, [sp, #0]
 800437e:	4b11      	ldr	r3, [pc, #68]	; (80043c4 <prvCheckForValidListAndQueue+0x74>)
 8004380:	4a11      	ldr	r2, [pc, #68]	; (80043c8 <prvCheckForValidListAndQueue+0x78>)
 8004382:	2110      	movs	r1, #16
 8004384:	200a      	movs	r0, #10
 8004386:	f7fe f987 	bl	8002698 <xQueueGenericCreateStatic>
 800438a:	4603      	mov	r3, r0
 800438c:	4a08      	ldr	r2, [pc, #32]	; (80043b0 <prvCheckForValidListAndQueue+0x60>)
 800438e:	6013      	str	r3, [r2, #0]
 8004390:	4b07      	ldr	r3, [pc, #28]	; (80043b0 <prvCheckForValidListAndQueue+0x60>)
 8004392:	681b      	ldr	r3, [r3, #0]
 8004394:	2b00      	cmp	r3, #0
 8004396:	d005      	beq.n	80043a4 <prvCheckForValidListAndQueue+0x54>
 8004398:	4b05      	ldr	r3, [pc, #20]	; (80043b0 <prvCheckForValidListAndQueue+0x60>)
 800439a:	681b      	ldr	r3, [r3, #0]
 800439c:	490b      	ldr	r1, [pc, #44]	; (80043cc <prvCheckForValidListAndQueue+0x7c>)
 800439e:	4618      	mov	r0, r3
 80043a0:	f7fe fda0 	bl	8002ee4 <vQueueAddToRegistry>
 80043a4:	f000 f96e 	bl	8004684 <vPortExitCritical>
 80043a8:	bf00      	nop
 80043aa:	46bd      	mov	sp, r7
 80043ac:	bd80      	pop	{r7, pc}
 80043ae:	bf00      	nop
 80043b0:	20000c18 	.word	0x20000c18
 80043b4:	20000be8 	.word	0x20000be8
 80043b8:	20000bfc 	.word	0x20000bfc
 80043bc:	20000c10 	.word	0x20000c10
 80043c0:	20000c14 	.word	0x20000c14
 80043c4:	20000cc4 	.word	0x20000cc4
 80043c8:	20000c24 	.word	0x20000c24
 80043cc:	08004d04 	.word	0x08004d04

080043d0 <pxPortInitialiseStack>:
 80043d0:	b480      	push	{r7}
 80043d2:	b085      	sub	sp, #20
 80043d4:	af00      	add	r7, sp, #0
 80043d6:	60f8      	str	r0, [r7, #12]
 80043d8:	60b9      	str	r1, [r7, #8]
 80043da:	607a      	str	r2, [r7, #4]
 80043dc:	68fb      	ldr	r3, [r7, #12]
 80043de:	3b04      	subs	r3, #4
 80043e0:	60fb      	str	r3, [r7, #12]
 80043e2:	68fb      	ldr	r3, [r7, #12]
 80043e4:	f04f 7280 	mov.w	r2, #16777216	; 0x1000000
 80043e8:	601a      	str	r2, [r3, #0]
 80043ea:	68fb      	ldr	r3, [r7, #12]
 80043ec:	3b04      	subs	r3, #4
 80043ee:	60fb      	str	r3, [r7, #12]
 80043f0:	68bb      	ldr	r3, [r7, #8]
 80043f2:	f023 0201 	bic.w	r2, r3, #1
 80043f6:	68fb      	ldr	r3, [r7, #12]
 80043f8:	601a      	str	r2, [r3, #0]
 80043fa:	68fb      	ldr	r3, [r7, #12]
 80043fc:	3b04      	subs	r3, #4
 80043fe:	60fb      	str	r3, [r7, #12]
 8004400:	4a0c      	ldr	r2, [pc, #48]	; (8004434 <pxPortInitialiseStack+0x64>)
 8004402:	68fb      	ldr	r3, [r7, #12]
 8004404:	601a      	str	r2, [r3, #0]
 8004406:	68fb      	ldr	r3, [r7, #12]
 8004408:	3b14      	subs	r3, #20
 800440a:	60fb      	str	r3, [r7, #12]
 800440c:	687a      	ldr	r2, [r7, #4]
 800440e:	68fb      	ldr	r3, [r7, #12]
 8004410:	601a      	str	r2, [r3, #0]
 8004412:	68fb      	ldr	r3, [r7, #12]
 8004414:	3b04      	subs	r3, #4
 8004416:	60fb      	str	r3, [r7, #12]
 8004418:	68fb      	ldr	r3, [r7, #12]
 800441a:	f06f 0202 	mvn.w	r2, #2
 800441e:	601a      	str	r2, [r3, #0]
 8004420:	68fb      	ldr	r3, [r7, #12]
 8004422:	3b20      	subs	r3, #32
 8004424:	60fb      	str	r3, [r7, #12]
 8004426:	68fb      	ldr	r3, [r7, #12]
 8004428:	4618      	mov	r0, r3
 800442a:	3714      	adds	r7, #20
 800442c:	46bd      	mov	sp, r7
 800442e:	f85d 7b04 	ldr.w	r7, [sp], #4
 8004432:	4770      	bx	lr
 8004434:	08004439 	.word	0x08004439

08004438 <prvTaskExitError>:
 8004438:	b480      	push	{r7}
 800443a:	b085      	sub	sp, #20
 800443c:	af00      	add	r7, sp, #0
 800443e:	2300      	movs	r3, #0
 8004440:	607b      	str	r3, [r7, #4]
 8004442:	4b12      	ldr	r3, [pc, #72]	; (800448c <prvTaskExitError+0x54>)
 8004444:	681b      	ldr	r3, [r3, #0]
 8004446:	f1b3 3fff 	cmp.w	r3, #4294967295
 800444a:	d00a      	beq.n	8004462 <prvTaskExitError+0x2a>
 800444c:	f04f 0350 	mov.w	r3, #80	; 0x50
 8004450:	f383 8811 	msr	BASEPRI, r3
 8004454:	f3bf 8f6f 	isb	sy
 8004458:	f3bf 8f4f 	dsb	sy
 800445c:	60fb      	str	r3, [r7, #12]
 800445e:	bf00      	nop
 8004460:	e7fe      	b.n	8004460 <prvTaskExitError+0x28>
 8004462:	f04f 0350 	mov.w	r3, #80	; 0x50
 8004466:	f383 8811 	msr	BASEPRI, r3
 800446a:	f3bf 8f6f 	isb	sy
 800446e:	f3bf 8f4f 	dsb	sy
 8004472:	60bb      	str	r3, [r7, #8]
 8004474:	bf00      	nop
 8004476:	bf00      	nop
 8004478:	687b      	ldr	r3, [r7, #4]
 800447a:	2b00      	cmp	r3, #0
 800447c:	d0fc      	beq.n	8004478 <prvTaskExitError+0x40>
 800447e:	bf00      	nop
 8004480:	bf00      	nop
 8004482:	3714      	adds	r7, #20
 8004484:	46bd      	mov	sp, r7
 8004486:	f85d 7b04 	ldr.w	r7, [sp], #4
 800448a:	4770      	bx	lr
 800448c:	2000000c 	.word	0x2000000c

08004490 <SVC_Handler>:
 8004490:	4b07      	ldr	r3, [pc, #28]	; (80044b0 <pxCurrentTCBConst2>)
 8004492:	6819      	ldr	r1, [r3, #0]
 8004494:	6808      	ldr	r0, [r1, #0]
 8004496:	e8b0 4ff0 	ldmia.w	r0!, {r4, r5, r6, r7, r8, r9, sl, fp, lr}
 800449a:	f380 8809 	msr	PSP, r0
 800449e:	f3bf 8f6f 	isb	sy
 80044a2:	f04f 0000 	mov.w	r0, #0
 80044a6:	f380 8811 	msr	BASEPRI, r0
 80044aa:	4770      	bx	lr
 80044ac:	f3af 8000 	nop.w

080044b0 <pxCurrentTCBConst2>:
 80044b0:	200006e8 	.word	0x200006e8
 80044b4:	bf00      	nop
 80044b6:	bf00      	nop

080044b8 <prvPortStartFirstTask>:
 80044b8:	4808      	ldr	r0, [pc, #32]	; (80044dc <prvPortStartFirstTask+0x24>)
 80044ba:	6800      	ldr	r0, [r0, #0]
 80044bc:	6800      	ldr	r0, [r0, #0]
 80044be:	f380 8808 	msr	MSP, r0
 80044c2:	f04f 0000 	mov.w	r0, #0
 80044c6:	f380 8814 	msr	CONTROL, r0
 80044ca:	b662      	cpsie	i
 80044cc:	b661      	cpsie	f
 80044ce:	f3bf 8f4f 	dsb	sy
 80044d2:	f3bf 8f6f 	isb	sy
 80044d6:	df00      	svc	0
 80044d8:	bf00      	nop
 80044da:	bf00      	nop
 80044dc:	e000ed08 	.word	0xe000ed08

080044e0 <xPortStartScheduler>:
 80044e0:	b580      	push	{r7, lr}
 80044e2:	b086      	sub	sp, #24
 80044e4:	af00      	add	r7, sp, #0
 80044e6:	4b46      	ldr	r3, [pc, #280]	; (8004600 <xPortStartScheduler+0x120>)
 80044e8:	681b      	ldr	r3, [r3, #0]
 80044ea:	4a46      	ldr	r2, [pc, #280]	; (8004604 <xPortStartScheduler+0x124>)
 80044ec:	4293      	cmp	r3, r2
 80044ee:	d10a      	bne.n	8004506 <xPortStartScheduler+0x26>
 80044f0:	f04f 0350 	mov.w	r3, #80	; 0x50
 80044f4:	f383 8811 	msr	BASEPRI, r3
 80044f8:	f3bf 8f6f 	isb	sy
 80044fc:	f3bf 8f4f 	dsb	sy
 8004500:	613b      	str	r3, [r7, #16]
 8004502:	bf00      	nop
 8004504:	e7fe      	b.n	8004504 <xPortStartScheduler+0x24>
 8004506:	4b3e      	ldr	r3, [pc, #248]	; (8004600 <xPortStartScheduler+0x120>)
 8004508:	681b      	ldr	r3, [r3, #0]
 800450a:	4a3f      	ldr	r2, [pc, #252]	; (8004608 <xPortStartScheduler+0x128>)
 800450c:	4293      	cmp	r3, r2
 800450e:	d10a      	bne.n	8004526 <xPortStartScheduler+0x46>
 8004510:	f04f 0350 	mov.w	r3, #80	; 0x50
 8004514:	f383 8811 	msr	BASEPRI, r3
 8004518:	f3bf 8f6f 	isb	sy
 800451c:	f3bf 8f4f 	dsb	sy
 8004520:	60fb      	str	r3, [r7, #12]
 8004522:	bf00      	nop
 8004524:	e7fe      	b.n	8004524 <xPortStartScheduler+0x44>
 8004526:	4b39      	ldr	r3, [pc, #228]	; (800460c <xPortStartScheduler+0x12c>)
 8004528:	617b      	str	r3, [r7, #20]
 800452a:	697b      	ldr	r3, [r7, #20]
 800452c:	781b      	ldrb	r3, [r3, #0]
 800452e:	b2db      	uxtb	r3, r3
 8004530:	607b      	str	r3, [r7, #4]
 8004532:	697b      	ldr	r3, [r7, #20]
 8004534:	22ff      	movs	r2, #255	; 0xff
 8004536:	701a      	strb	r2, [r3, #0]
 8004538:	697b      	ldr	r3, [r7, #20]
 800453a:	781b      	ldrb	r3, [r3, #0]
 800453c:	b2db      	uxtb	r3, r3
 800453e:	70fb      	strb	r3, [r7, #3]
 8004540:	78fb      	ldrb	r3, [r7, #3]
 8004542:	b2db      	uxtb	r3, r3
 8004544:	f003 0350 	and.w	r3, r3, #80	; 0x50
 8004548:	b2da      	uxtb	r2, r3
 800454a:	4b31      	ldr	r3, [pc, #196]	; (8004610 <xPortStartScheduler+0x130>)
 800454c:	701a      	strb	r2, [r3, #0]
 800454e:	4b31      	ldr	r3, [pc, #196]	; (8004614 <xPortStartScheduler+0x134>)
 8004550:	2207      	movs	r2, #7
 8004552:	601a      	str	r2, [r3, #0]
 8004554:	e009      	b.n	800456a <xPortStartScheduler+0x8a>
 8004556:	4b2f      	ldr	r3, [pc, #188]	; (8004614 <xPortStartScheduler+0x134>)
 8004558:	681b      	ldr	r3, [r3, #0]
 800455a:	3b01      	subs	r3, #1
 800455c:	4a2d      	ldr	r2, [pc, #180]	; (8004614 <xPortStartScheduler+0x134>)
 800455e:	6013      	str	r3, [r2, #0]
 8004560:	78fb      	ldrb	r3, [r7, #3]
 8004562:	b2db      	uxtb	r3, r3
 8004564:	005b      	lsls	r3, r3, #1
 8004566:	b2db      	uxtb	r3, r3
 8004568:	70fb      	strb	r3, [r7, #3]
 800456a:	78fb      	ldrb	r3, [r7, #3]
 800456c:	b2db      	uxtb	r3, r3
 800456e:	f003 0380 	and.w	r3, r3, #128	; 0x80
 8004572:	2b80      	cmp	r3, #128	; 0x80
 8004574:	d0ef      	beq.n	8004556 <xPortStartScheduler+0x76>
 8004576:	4b27      	ldr	r3, [pc, #156]	; (8004614 <xPortStartScheduler+0x134>)
 8004578:	681b      	ldr	r3, [r3, #0]
 800457a:	f1c3 0307 	rsb	r3, r3, #7
 800457e:	2b04      	cmp	r3, #4
 8004580:	d00a      	beq.n	8004598 <xPortStartScheduler+0xb8>
 8004582:	f04f 0350 	mov.w	r3, #80	; 0x50
 8004586:	f383 8811 	msr	BASEPRI, r3
 800458a:	f3bf 8f6f 	isb	sy
 800458e:	f3bf 8f4f 	dsb	sy
 8004592:	60bb      	str	r3, [r7, #8]
 8004594:	bf00      	nop
 8004596:	e7fe      	b.n	8004596 <xPortStartScheduler+0xb6>
 8004598:	4b1e      	ldr	r3, [pc, #120]	; (8004614 <xPortStartScheduler+0x134>)
 800459a:	681b      	ldr	r3, [r3, #0]
 800459c:	021b      	lsls	r3, r3, #8
 800459e:	4a1d      	ldr	r2, [pc, #116]	; (8004614 <xPortStartScheduler+0x134>)
 80045a0:	6013      	str	r3, [r2, #0]
 80045a2:	4b1c      	ldr	r3, [pc, #112]	; (8004614 <xPortStartScheduler+0x134>)
 80045a4:	681b      	ldr	r3, [r3, #0]
 80045a6:	f403 63e0 	and.w	r3, r3, #1792	; 0x700
 80045aa:	4a1a      	ldr	r2, [pc, #104]	; (8004614 <xPortStartScheduler+0x134>)
 80045ac:	6013      	str	r3, [r2, #0]
 80045ae:	687b      	ldr	r3, [r7, #4]
 80045b0:	b2da      	uxtb	r2, r3
 80045b2:	697b      	ldr	r3, [r7, #20]
 80045b4:	701a      	strb	r2, [r3, #0]
 80045b6:	4b18      	ldr	r3, [pc, #96]	; (8004618 <xPortStartScheduler+0x138>)
 80045b8:	681b      	ldr	r3, [r3, #0]
 80045ba:	4a17      	ldr	r2, [pc, #92]	; (8004618 <xPortStartScheduler+0x138>)
 80045bc:	f443 0370 	orr.w	r3, r3, #15728640	; 0xf00000
 80045c0:	6013      	str	r3, [r2, #0]
 80045c2:	4b15      	ldr	r3, [pc, #84]	; (8004618 <xPortStartScheduler+0x138>)
 80045c4:	681b      	ldr	r3, [r3, #0]
 80045c6:	4a14      	ldr	r2, [pc, #80]	; (8004618 <xPortStartScheduler+0x138>)
 80045c8:	f043 4370 	orr.w	r3, r3, #4026531840	; 0xf0000000
 80045cc:	6013      	str	r3, [r2, #0]
 80045ce:	f000 f8dd 	bl	800478c <vPortSetupTimerInterrupt>
 80045d2:	4b12      	ldr	r3, [pc, #72]	; (800461c <xPortStartScheduler+0x13c>)
 80045d4:	2200      	movs	r2, #0
 80045d6:	601a      	str	r2, [r3, #0]
 80045d8:	f000 f8fc 	bl	80047d4 <vPortEnableVFP>
 80045dc:	4b10      	ldr	r3, [pc, #64]	; (8004620 <xPortStartScheduler+0x140>)
 80045de:	681b      	ldr	r3, [r3, #0]
 80045e0:	4a0f      	ldr	r2, [pc, #60]	; (8004620 <xPortStartScheduler+0x140>)
 80045e2:	f043 4340 	orr.w	r3, r3, #3221225472	; 0xc0000000
 80045e6:	6013      	str	r3, [r2, #0]
 80045e8:	f7ff ff66 	bl	80044b8 <prvPortStartFirstTask>
 80045ec:	f7ff f856 	bl	800369c <vTaskSwitchContext>
 80045f0:	f7ff ff22 	bl	8004438 <prvTaskExitError>
 80045f4:	2300      	movs	r3, #0
 80045f6:	4618      	mov	r0, r3
 80045f8:	3718      	adds	r7, #24
 80045fa:	46bd      	mov	sp, r7
 80045fc:	bd80      	pop	{r7, pc}
 80045fe:	bf00      	nop
 8004600:	e000ed00 	.word	0xe000ed00
 8004604:	410fc271 	.word	0x410fc271
 8004608:	410fc270 	.word	0x410fc270
 800460c:	e000e400 	.word	0xe000e400
 8004610:	20000d14 	.word	0x20000d14
 8004614:	20000d18 	.word	0x20000d18
 8004618:	e000ed20 	.word	0xe000ed20
 800461c:	2000000c 	.word	0x2000000c
 8004620:	e000ef34 	.word	0xe000ef34

08004624 <vPortEnterCritical>:
 8004624:	b480      	push	{r7}
 8004626:	b083      	sub	sp, #12
 8004628:	af00      	add	r7, sp, #0
 800462a:	f04f 0350 	mov.w	r3, #80	; 0x50
 800462e:	f383 8811 	msr	BASEPRI, r3
 8004632:	f3bf 8f6f 	isb	sy
 8004636:	f3bf 8f4f 	dsb	sy
 800463a:	607b      	str	r3, [r7, #4]
 800463c:	bf00      	nop
 800463e:	4b0f      	ldr	r3, [pc, #60]	; (800467c <vPortEnterCritical+0x58>)
 8004640:	681b      	ldr	r3, [r3, #0]
 8004642:	3301      	adds	r3, #1
 8004644:	4a0d      	ldr	r2, [pc, #52]	; (800467c <vPortEnterCritical+0x58>)
 8004646:	6013      	str	r3, [r2, #0]
 8004648:	4b0c      	ldr	r3, [pc, #48]	; (800467c <vPortEnterCritical+0x58>)
 800464a:	681b      	ldr	r3, [r3, #0]
 800464c:	2b01      	cmp	r3, #1
 800464e:	d10f      	bne.n	8004670 <vPortEnterCritical+0x4c>
 8004650:	4b0b      	ldr	r3, [pc, #44]	; (8004680 <vPortEnterCritical+0x5c>)
 8004652:	681b      	ldr	r3, [r3, #0]
 8004654:	b2db      	uxtb	r3, r3
 8004656:	2b00      	cmp	r3, #0
 8004658:	d00a      	beq.n	8004670 <vPortEnterCritical+0x4c>
 800465a:	f04f 0350 	mov.w	r3, #80	; 0x50
 800465e:	f383 8811 	msr	BASEPRI, r3
 8004662:	f3bf 8f6f 	isb	sy
 8004666:	f3bf 8f4f 	dsb	sy
 800466a:	603b      	str	r3, [r7, #0]
 800466c:	bf00      	nop
 800466e:	e7fe      	b.n	800466e <vPortEnterCritical+0x4a>
 8004670:	bf00      	nop
 8004672:	370c      	adds	r7, #12
 8004674:	46bd      	mov	sp, r7
 8004676:	f85d 7b04 	ldr.w	r7, [sp], #4
 800467a:	4770      	bx	lr
 800467c:	2000000c 	.word	0x2000000c
 8004680:	e000ed04 	.word	0xe000ed04

08004684 <vPortExitCritical>:
 8004684:	b480      	push	{r7}
 8004686:	b083      	sub	sp, #12
 8004688:	af00      	add	r7, sp, #0
 800468a:	4b12      	ldr	r3, [pc, #72]	; (80046d4 <vPortExitCritical+0x50>)
 800468c:	681b      	ldr	r3, [r3, #0]
 800468e:	2b00      	cmp	r3, #0
 8004690:	d10a      	bne.n	80046a8 <vPortExitCritical+0x24>
 8004692:	f04f 0350 	mov.w	r3, #80	; 0x50
 8004696:	f383 8811 	msr	BASEPRI, r3
 800469a:	f3bf 8f6f 	isb	sy
 800469e:	f3bf 8f4f 	dsb	sy
 80046a2:	607b      	str	r3, [r7, #4]
 80046a4:	bf00      	nop
 80046a6:	e7fe      	b.n	80046a6 <vPortExitCritical+0x22>
 80046a8:	4b0a      	ldr	r3, [pc, #40]	; (80046d4 <vPortExitCritical+0x50>)
 80046aa:	681b      	ldr	r3, [r3, #0]
 80046ac:	3b01      	subs	r3, #1
 80046ae:	4a09      	ldr	r2, [pc, #36]	; (80046d4 <vPortExitCritical+0x50>)
 80046b0:	6013      	str	r3, [r2, #0]
 80046b2:	4b08      	ldr	r3, [pc, #32]	; (80046d4 <vPortExitCritical+0x50>)
 80046b4:	681b      	ldr	r3, [r3, #0]
 80046b6:	2b00      	cmp	r3, #0
 80046b8:	d105      	bne.n	80046c6 <vPortExitCritical+0x42>
 80046ba:	2300      	movs	r3, #0
 80046bc:	603b      	str	r3, [r7, #0]
 80046be:	683b      	ldr	r3, [r7, #0]
 80046c0:	f383 8811 	msr	BASEPRI, r3
 80046c4:	bf00      	nop
 80046c6:	bf00      	nop
 80046c8:	370c      	adds	r7, #12
 80046ca:	46bd      	mov	sp, r7
 80046cc:	f85d 7b04 	ldr.w	r7, [sp], #4
 80046d0:	4770      	bx	lr
 80046d2:	bf00      	nop
 80046d4:	2000000c 	.word	0x2000000c
	...

080046e0 <PendSV_Handler>:
 80046e0:	f3ef 8009 	mrs	r0, PSP
 80046e4:	f3bf 8f6f 	isb	sy
 80046e8:	4b15      	ldr	r3, [pc, #84]	; (8004740 <pxCurrentTCBConst>)
 80046ea:	681a      	ldr	r2, [r3, #0]
 80046ec:	f01e 0f10 	tst.w	lr, #16
 80046f0:	bf08      	it	eq
 80046f2:	ed20 8a10 	vstmdbeq	r0!, {s16-s31}
 80046f6:	e920 4ff0 	stmdb	r0!, {r4, r5, r6, r7, r8, r9, sl, fp, lr}
 80046fa:	6010      	str	r0, [r2, #0]
 80046fc:	e92d 0009 	stmdb	sp!, {r0, r3}
 8004700:	f04f 0050 	mov.w	r0, #80	; 0x50
 8004704:	f380 8811 	msr	BASEPRI, r0
 8004708:	f3bf 8f4f 	dsb	sy
 800470c:	f3bf 8f6f 	isb	sy
 8004710:	f7fe ffc4 	bl	800369c <vTaskSwitchContext>
 8004714:	f04f 0000 	mov.w	r0, #0
 8004718:	f380 8811 	msr	BASEPRI, r0
 800471c:	bc09      	pop	{r0, r3}
 800471e:	6819      	ldr	r1, [r3, #0]
 8004720:	6808      	ldr	r0, [r1, #0]
 8004722:	e8b0 4ff0 	ldmia.w	r0!, {r4, r5, r6, r7, r8, r9, sl, fp, lr}
 8004726:	f01e 0f10 	tst.w	lr, #16
 800472a:	bf08      	it	eq
 800472c:	ecb0 8a10 	vldmiaeq	r0!, {s16-s31}
 8004730:	f380 8809 	msr	PSP, r0
 8004734:	f3bf 8f6f 	isb	sy
 8004738:	4770      	bx	lr
 800473a:	bf00      	nop
 800473c:	f3af 8000 	nop.w

08004740 <pxCurrentTCBConst>:
 8004740:	200006e8 	.word	0x200006e8
 8004744:	bf00      	nop
 8004746:	bf00      	nop

08004748 <xPortSysTickHandler>:
 8004748:	b580      	push	{r7, lr}
 800474a:	b082      	sub	sp, #8
 800474c:	af00      	add	r7, sp, #0
 800474e:	f04f 0350 	mov.w	r3, #80	; 0x50
 8004752:	f383 8811 	msr	BASEPRI, r3
 8004756:	f3bf 8f6f 	isb	sy
 800475a:	f3bf 8f4f 	dsb	sy
 800475e:	607b      	str	r3, [r7, #4]
 8004760:	bf00      	nop
 8004762:	f7fe fee1 	bl	8003528 <xTaskIncrementTick>
 8004766:	4603      	mov	r3, r0
 8004768:	2b00      	cmp	r3, #0
 800476a:	d003      	beq.n	8004774 <xPortSysTickHandler+0x2c>
 800476c:	4b06      	ldr	r3, [pc, #24]	; (8004788 <xPortSysTickHandler+0x40>)
 800476e:	f04f 5280 	mov.w	r2, #268435456	; 0x10000000
 8004772:	601a      	str	r2, [r3, #0]
 8004774:	2300      	movs	r3, #0
 8004776:	603b      	str	r3, [r7, #0]
 8004778:	683b      	ldr	r3, [r7, #0]
 800477a:	f383 8811 	msr	BASEPRI, r3
 800477e:	bf00      	nop
 8004780:	bf00      	nop
 8004782:	3708      	adds	r7, #8
 8004784:	46bd      	mov	sp, r7
 8004786:	bd80      	pop	{r7, pc}
 8004788:	e000ed04 	.word	0xe000ed04

0800478c <vPortSetupTimerInterrupt>:
 800478c:	b480      	push	{r7}
 800478e:	af00      	add	r7, sp, #0
 8004790:	4b0b      	ldr	r3, [pc, #44]	; (80047c0 <vPortSetupTimerInterrupt+0x34>)
 8004792:	2200      	movs	r2, #0
 8004794:	601a      	str	r2, [r3, #0]
 8004796:	4b0b      	ldr	r3, [pc, #44]	; (80047c4 <vPortSetupTimerInterrupt+0x38>)
 8004798:	2200      	movs	r2, #0
 800479a:	601a      	str	r2, [r3, #0]
 800479c:	4b0a      	ldr	r3, [pc, #40]	; (80047c8 <vPortSetupTimerInterrupt+0x3c>)
 800479e:	681b      	ldr	r3, [r3, #0]
 80047a0:	4a0a      	ldr	r2, [pc, #40]	; (80047cc <vPortSetupTimerInterrupt+0x40>)
 80047a2:	fba2 2303 	umull	r2, r3, r2, r3
 80047a6:	099b      	lsrs	r3, r3, #6
 80047a8:	4a09      	ldr	r2, [pc, #36]	; (80047d0 <vPortSetupTimerInterrupt+0x44>)
 80047aa:	3b01      	subs	r3, #1
 80047ac:	6013      	str	r3, [r2, #0]
 80047ae:	4b04      	ldr	r3, [pc, #16]	; (80047c0 <vPortSetupTimerInterrupt+0x34>)
 80047b0:	2207      	movs	r2, #7
 80047b2:	601a      	str	r2, [r3, #0]
 80047b4:	bf00      	nop
 80047b6:	46bd      	mov	sp, r7
 80047b8:	f85d 7b04 	ldr.w	r7, [sp], #4
 80047bc:	4770      	bx	lr
 80047be:	bf00      	nop
 80047c0:	e000e010 	.word	0xe000e010
 80047c4:	e000e018 	.word	0xe000e018
 80047c8:	20000000 	.word	0x20000000
 80047cc:	10624dd3 	.word	0x10624dd3
 80047d0:	e000e014 	.word	0xe000e014

080047d4 <vPortEnableVFP>:
 80047d4:	f8df 000c 	ldr.w	r0, [pc, #12]	; 80047e4 <vPortEnableVFP+0x10>
 80047d8:	6801      	ldr	r1, [r0, #0]
 80047da:	f441 0170 	orr.w	r1, r1, #15728640	; 0xf00000
 80047de:	6001      	str	r1, [r0, #0]
 80047e0:	4770      	bx	lr
 80047e2:	bf00      	nop
 80047e4:	e000ed88 	.word	0xe000ed88

080047e8 <vPortValidateInterruptPriority>:
 80047e8:	b480      	push	{r7}
 80047ea:	b085      	sub	sp, #20
 80047ec:	af00      	add	r7, sp, #0
 80047ee:	f3ef 8305 	mrs	r3, IPSR
 80047f2:	60fb      	str	r3, [r7, #12]
 80047f4:	68fb      	ldr	r3, [r7, #12]
 80047f6:	2b0f      	cmp	r3, #15
 80047f8:	d914      	bls.n	8004824 <vPortValidateInterruptPriority+0x3c>
 80047fa:	4a17      	ldr	r2, [pc, #92]	; (8004858 <vPortValidateInterruptPriority+0x70>)
 80047fc:	68fb      	ldr	r3, [r7, #12]
 80047fe:	4413      	add	r3, r2
 8004800:	781b      	ldrb	r3, [r3, #0]
 8004802:	72fb      	strb	r3, [r7, #11]
 8004804:	4b15      	ldr	r3, [pc, #84]	; (800485c <vPortValidateInterruptPriority+0x74>)
 8004806:	781b      	ldrb	r3, [r3, #0]
 8004808:	7afa      	ldrb	r2, [r7, #11]
 800480a:	429a      	cmp	r2, r3
 800480c:	d20a      	bcs.n	8004824 <vPortValidateInterruptPriority+0x3c>
 800480e:	f04f 0350 	mov.w	r3, #80	; 0x50
 8004812:	f383 8811 	msr	BASEPRI, r3
 8004816:	f3bf 8f6f 	isb	sy
 800481a:	f3bf 8f4f 	dsb	sy
 800481e:	607b      	str	r3, [r7, #4]
 8004820:	bf00      	nop
 8004822:	e7fe      	b.n	8004822 <vPortValidateInterruptPriority+0x3a>
 8004824:	4b0e      	ldr	r3, [pc, #56]	; (8004860 <vPortValidateInterruptPriority+0x78>)
 8004826:	681b      	ldr	r3, [r3, #0]
 8004828:	f403 62e0 	and.w	r2, r3, #1792	; 0x700
 800482c:	4b0d      	ldr	r3, [pc, #52]	; (8004864 <vPortValidateInterruptPriority+0x7c>)
 800482e:	681b      	ldr	r3, [r3, #0]
 8004830:	429a      	cmp	r2, r3
 8004832:	d90a      	bls.n	800484a <vPortValidateInterruptPriority+0x62>
 8004834:	f04f 0350 	mov.w	r3, #80	; 0x50
 8004838:	f383 8811 	msr	BASEPRI, r3
 800483c:	f3bf 8f6f 	isb	sy
 8004840:	f3bf 8f4f 	dsb	sy
 8004844:	603b      	str	r3, [r7, #0]
 8004846:	bf00      	nop
 8004848:	e7fe      	b.n	8004848 <vPortValidateInterruptPriority+0x60>
 800484a:	bf00      	nop
 800484c:	3714      	adds	r7, #20
 800484e:	46bd      	mov	sp, r7
 8004850:	f85d 7b04 	ldr.w	r7, [sp], #4
 8004854:	4770      	bx	lr
 8004856:	bf00      	nop
 8004858:	e000e3f0 	.word	0xe000e3f0
 800485c:	20000d14 	.word	0x20000d14
 8004860:	e000ed0c 	.word	0xe000ed0c
 8004864:	20000d18 	.word	0x20000d18

08004868 <pvPortMalloc>:
 8004868:	b580      	push	{r7, lr}
 800486a:	b08a      	sub	sp, #40	; 0x28
 800486c:	af00      	add	r7, sp, #0
 800486e:	6078      	str	r0, [r7, #4]
 8004870:	2300      	movs	r3, #0
 8004872:	61fb      	str	r3, [r7, #28]
 8004874:	f7fe fd9c 	bl	80033b0 <vTaskSuspendAll>
 8004878:	4b5b      	ldr	r3, [pc, #364]	; (80049e8 <pvPortMalloc+0x180>)
 800487a:	681b      	ldr	r3, [r3, #0]
 800487c:	2b00      	cmp	r3, #0
 800487e:	d101      	bne.n	8004884 <pvPortMalloc+0x1c>
 8004880:	f000 f920 	bl	8004ac4 <prvHeapInit>
 8004884:	4b59      	ldr	r3, [pc, #356]	; (80049ec <pvPortMalloc+0x184>)
 8004886:	681a      	ldr	r2, [r3, #0]
 8004888:	687b      	ldr	r3, [r7, #4]
 800488a:	4013      	ands	r3, r2
 800488c:	2b00      	cmp	r3, #0
 800488e:	f040 8093 	bne.w	80049b8 <pvPortMalloc+0x150>
 8004892:	687b      	ldr	r3, [r7, #4]
 8004894:	2b00      	cmp	r3, #0
 8004896:	d01d      	beq.n	80048d4 <pvPortMalloc+0x6c>
 8004898:	2208      	movs	r2, #8
 800489a:	687b      	ldr	r3, [r7, #4]
 800489c:	4413      	add	r3, r2
 800489e:	607b      	str	r3, [r7, #4]
 80048a0:	687b      	ldr	r3, [r7, #4]
 80048a2:	f003 0307 	and.w	r3, r3, #7
 80048a6:	2b00      	cmp	r3, #0
 80048a8:	d014      	beq.n	80048d4 <pvPortMalloc+0x6c>
 80048aa:	687b      	ldr	r3, [r7, #4]
 80048ac:	f023 0307 	bic.w	r3, r3, #7
 80048b0:	3308      	adds	r3, #8
 80048b2:	607b      	str	r3, [r7, #4]
 80048b4:	687b      	ldr	r3, [r7, #4]
 80048b6:	f003 0307 	and.w	r3, r3, #7
 80048ba:	2b00      	cmp	r3, #0
 80048bc:	d00a      	beq.n	80048d4 <pvPortMalloc+0x6c>
 80048be:	f04f 0350 	mov.w	r3, #80	; 0x50
 80048c2:	f383 8811 	msr	BASEPRI, r3
 80048c6:	f3bf 8f6f 	isb	sy
 80048ca:	f3bf 8f4f 	dsb	sy
 80048ce:	617b      	str	r3, [r7, #20]
 80048d0:	bf00      	nop
 80048d2:	e7fe      	b.n	80048d2 <pvPortMalloc+0x6a>
 80048d4:	687b      	ldr	r3, [r7, #4]
 80048d6:	2b00      	cmp	r3, #0
 80048d8:	d06e      	beq.n	80049b8 <pvPortMalloc+0x150>
 80048da:	4b45      	ldr	r3, [pc, #276]	; (80049f0 <pvPortMalloc+0x188>)
 80048dc:	681b      	ldr	r3, [r3, #0]
 80048de:	687a      	ldr	r2, [r7, #4]
 80048e0:	429a      	cmp	r2, r3
 80048e2:	d869      	bhi.n	80049b8 <pvPortMalloc+0x150>
 80048e4:	4b43      	ldr	r3, [pc, #268]	; (80049f4 <pvPortMalloc+0x18c>)
 80048e6:	623b      	str	r3, [r7, #32]
 80048e8:	4b42      	ldr	r3, [pc, #264]	; (80049f4 <pvPortMalloc+0x18c>)
 80048ea:	681b      	ldr	r3, [r3, #0]
 80048ec:	627b      	str	r3, [r7, #36]	; 0x24
 80048ee:	e004      	b.n	80048fa <pvPortMalloc+0x92>
 80048f0:	6a7b      	ldr	r3, [r7, #36]	; 0x24
 80048f2:	623b      	str	r3, [r7, #32]
 80048f4:	6a7b      	ldr	r3, [r7, #36]	; 0x24
 80048f6:	681b      	ldr	r3, [r3, #0]
 80048f8:	627b      	str	r3, [r7, #36]	; 0x24
 80048fa:	6a7b      	ldr	r3, [r7, #36]	; 0x24
 80048fc:	685b      	ldr	r3, [r3, #4]
 80048fe:	687a      	ldr	r2, [r7, #4]
 8004900:	429a      	cmp	r2, r3
 8004902:	d903      	bls.n	800490c <pvPortMalloc+0xa4>
 8004904:	6a7b      	ldr	r3, [r7, #36]	; 0x24
 8004906:	681b      	ldr	r3, [r3, #0]
 8004908:	2b00      	cmp	r3, #0
 800490a:	d1f1      	bne.n	80048f0 <pvPortMalloc+0x88>
 800490c:	4b36      	ldr	r3, [pc, #216]	; (80049e8 <pvPortMalloc+0x180>)
 800490e:	681b      	ldr	r3, [r3, #0]
 8004910:	6a7a      	ldr	r2, [r7, #36]	; 0x24
 8004912:	429a      	cmp	r2, r3
 8004914:	d050      	beq.n	80049b8 <pvPortMalloc+0x150>
 8004916:	6a3b      	ldr	r3, [r7, #32]
 8004918:	681b      	ldr	r3, [r3, #0]
 800491a:	2208      	movs	r2, #8
 800491c:	4413      	add	r3, r2
 800491e:	61fb      	str	r3, [r7, #28]
 8004920:	6a7b      	ldr	r3, [r7, #36]	; 0x24
 8004922:	681a      	ldr	r2, [r3, #0]
 8004924:	6a3b      	ldr	r3, [r7, #32]
 8004926:	601a      	str	r2, [r3, #0]
 8004928:	6a7b      	ldr	r3, [r7, #36]	; 0x24
 800492a:	685a      	ldr	r2, [r3, #4]
 800492c:	687b      	ldr	r3, [r7, #4]
 800492e:	1ad2      	subs	r2, r2, r3
 8004930:	2308      	movs	r3, #8
 8004932:	005b      	lsls	r3, r3, #1
 8004934:	429a      	cmp	r2, r3
 8004936:	d91f      	bls.n	8004978 <pvPortMalloc+0x110>
 8004938:	6a7a      	ldr	r2, [r7, #36]	; 0x24
 800493a:	687b      	ldr	r3, [r7, #4]
 800493c:	4413      	add	r3, r2
 800493e:	61bb      	str	r3, [r7, #24]
 8004940:	69bb      	ldr	r3, [r7, #24]
 8004942:	f003 0307 	and.w	r3, r3, #7
 8004946:	2b00      	cmp	r3, #0
 8004948:	d00a      	beq.n	8004960 <pvPortMalloc+0xf8>
 800494a:	f04f 0350 	mov.w	r3, #80	; 0x50
 800494e:	f383 8811 	msr	BASEPRI, r3
 8004952:	f3bf 8f6f 	isb	sy
 8004956:	f3bf 8f4f 	dsb	sy
 800495a:	613b      	str	r3, [r7, #16]
 800495c:	bf00      	nop
 800495e:	e7fe      	b.n	800495e <pvPortMalloc+0xf6>
 8004960:	6a7b      	ldr	r3, [r7, #36]	; 0x24
 8004962:	685a      	ldr	r2, [r3, #4]
 8004964:	687b      	ldr	r3, [r7, #4]
 8004966:	1ad2      	subs	r2, r2, r3
 8004968:	69bb      	ldr	r3, [r7, #24]
 800496a:	605a      	str	r2, [r3, #4]
 800496c:	6a7b      	ldr	r3, [r7, #36]	; 0x24
 800496e:	687a      	ldr	r2, [r7, #4]
 8004970:	605a      	str	r2, [r3, #4]
 8004972:	69b8      	ldr	r0, [r7, #24]
 8004974:	f000 f908 	bl	8004b88 <prvInsertBlockIntoFreeList>
 8004978:	4b1d      	ldr	r3, [pc, #116]	; (80049f0 <pvPortMalloc+0x188>)
 800497a:	681a      	ldr	r2, [r3, #0]
 800497c:	6a7b      	ldr	r3, [r7, #36]	; 0x24
 800497e:	685b      	ldr	r3, [r3, #4]
 8004980:	1ad3      	subs	r3, r2, r3
 8004982:	4a1b      	ldr	r2, [pc, #108]	; (80049f0 <pvPortMalloc+0x188>)
 8004984:	6013      	str	r3, [r2, #0]
 8004986:	4b1a      	ldr	r3, [pc, #104]	; (80049f0 <pvPortMalloc+0x188>)
 8004988:	681a      	ldr	r2, [r3, #0]
 800498a:	4b1b      	ldr	r3, [pc, #108]	; (80049f8 <pvPortMalloc+0x190>)
 800498c:	681b      	ldr	r3, [r3, #0]
 800498e:	429a      	cmp	r2, r3
 8004990:	d203      	bcs.n	800499a <pvPortMalloc+0x132>
 8004992:	4b17      	ldr	r3, [pc, #92]	; (80049f0 <pvPortMalloc+0x188>)
 8004994:	681b      	ldr	r3, [r3, #0]
 8004996:	4a18      	ldr	r2, [pc, #96]	; (80049f8 <pvPortMalloc+0x190>)
 8004998:	6013      	str	r3, [r2, #0]
 800499a:	6a7b      	ldr	r3, [r7, #36]	; 0x24
 800499c:	685a      	ldr	r2, [r3, #4]
 800499e:	4b13      	ldr	r3, [pc, #76]	; (80049ec <pvPortMalloc+0x184>)
 80049a0:	681b      	ldr	r3, [r3, #0]
 80049a2:	431a      	orrs	r2, r3
 80049a4:	6a7b      	ldr	r3, [r7, #36]	; 0x24
 80049a6:	605a      	str	r2, [r3, #4]
 80049a8:	6a7b      	ldr	r3, [r7, #36]	; 0x24
 80049aa:	2200      	movs	r2, #0
 80049ac:	601a      	str	r2, [r3, #0]
 80049ae:	4b13      	ldr	r3, [pc, #76]	; (80049fc <pvPortMalloc+0x194>)
 80049b0:	681b      	ldr	r3, [r3, #0]
 80049b2:	3301      	adds	r3, #1
 80049b4:	4a11      	ldr	r2, [pc, #68]	; (80049fc <pvPortMalloc+0x194>)
 80049b6:	6013      	str	r3, [r2, #0]
 80049b8:	f7fe fd08 	bl	80033cc <xTaskResumeAll>
 80049bc:	69fb      	ldr	r3, [r7, #28]
 80049be:	f003 0307 	and.w	r3, r3, #7
 80049c2:	2b00      	cmp	r3, #0
 80049c4:	d00a      	beq.n	80049dc <pvPortMalloc+0x174>
 80049c6:	f04f 0350 	mov.w	r3, #80	; 0x50
 80049ca:	f383 8811 	msr	BASEPRI, r3
 80049ce:	f3bf 8f6f 	isb	sy
 80049d2:	f3bf 8f4f 	dsb	sy
 80049d6:	60fb      	str	r3, [r7, #12]
 80049d8:	bf00      	nop
 80049da:	e7fe      	b.n	80049da <pvPortMalloc+0x172>
 80049dc:	69fb      	ldr	r3, [r7, #28]
 80049de:	4618      	mov	r0, r3
 80049e0:	3728      	adds	r7, #40	; 0x28
 80049e2:	46bd      	mov	sp, r7
 80049e4:	bd80      	pop	{r7, pc}
 80049e6:	bf00      	nop
 80049e8:	20004924 	.word	0x20004924
 80049ec:	20004938 	.word	0x20004938
 80049f0:	20004928 	.word	0x20004928
 80049f4:	2000491c 	.word	0x2000491c
 80049f8:	2000492c 	.word	0x2000492c
 80049fc:	20004930 	.word	0x20004930

08004a00 <vPortFree>:
 8004a00:	b580      	push	{r7, lr}
 8004a02:	b086      	sub	sp, #24
 8004a04:	af00      	add	r7, sp, #0
 8004a06:	6078      	str	r0, [r7, #4]
 8004a08:	687b      	ldr	r3, [r7, #4]
 8004a0a:	617b      	str	r3, [r7, #20]
 8004a0c:	687b      	ldr	r3, [r7, #4]
 8004a0e:	2b00      	cmp	r3, #0
 8004a10:	d04d      	beq.n	8004aae <vPortFree+0xae>
 8004a12:	2308      	movs	r3, #8
 8004a14:	425b      	negs	r3, r3
 8004a16:	697a      	ldr	r2, [r7, #20]
 8004a18:	4413      	add	r3, r2
 8004a1a:	617b      	str	r3, [r7, #20]
 8004a1c:	697b      	ldr	r3, [r7, #20]
 8004a1e:	613b      	str	r3, [r7, #16]
 8004a20:	693b      	ldr	r3, [r7, #16]
 8004a22:	685a      	ldr	r2, [r3, #4]
 8004a24:	4b24      	ldr	r3, [pc, #144]	; (8004ab8 <vPortFree+0xb8>)
 8004a26:	681b      	ldr	r3, [r3, #0]
 8004a28:	4013      	ands	r3, r2
 8004a2a:	2b00      	cmp	r3, #0
 8004a2c:	d10a      	bne.n	8004a44 <vPortFree+0x44>
 8004a2e:	f04f 0350 	mov.w	r3, #80	; 0x50
 8004a32:	f383 8811 	msr	BASEPRI, r3
 8004a36:	f3bf 8f6f 	isb	sy
 8004a3a:	f3bf 8f4f 	dsb	sy
 8004a3e:	60fb      	str	r3, [r7, #12]
 8004a40:	bf00      	nop
 8004a42:	e7fe      	b.n	8004a42 <vPortFree+0x42>
 8004a44:	693b      	ldr	r3, [r7, #16]
 8004a46:	681b      	ldr	r3, [r3, #0]
 8004a48:	2b00      	cmp	r3, #0
 8004a4a:	d00a      	beq.n	8004a62 <vPortFree+0x62>
 8004a4c:	f04f 0350 	mov.w	r3, #80	; 0x50
 8004a50:	f383 8811 	msr	BASEPRI, r3
 8004a54:	f3bf 8f6f 	isb	sy
 8004a58:	f3bf 8f4f 	dsb	sy
 8004a5c:	60bb      	str	r3, [r7, #8]
 8004a5e:	bf00      	nop
 8004a60:	e7fe      	b.n	8004a60 <vPortFree+0x60>
 8004a62:	693b      	ldr	r3, [r7, #16]
 8004a64:	685a      	ldr	r2, [r3, #4]
 8004a66:	4b14      	ldr	r3, [pc, #80]	; (8004ab8 <vPortFree+0xb8>)
 8004a68:	681b      	ldr	r3, [r3, #0]
 8004a6a:	4013      	ands	r3, r2
 8004a6c:	2b00      	cmp	r3, #0
 8004a6e:	d01e      	beq.n	8004aae <vPortFree+0xae>
 8004a70:	693b      	ldr	r3, [r7, #16]
 8004a72:	681b      	ldr	r3, [r3, #0]
 8004a74:	2b00      	cmp	r3, #0
 8004a76:	d11a      	bne.n	8004aae <vPortFree+0xae>
 8004a78:	693b      	ldr	r3, [r7, #16]
 8004a7a:	685a      	ldr	r2, [r3, #4]
 8004a7c:	4b0e      	ldr	r3, [pc, #56]	; (8004ab8 <vPortFree+0xb8>)
 8004a7e:	681b      	ldr	r3, [r3, #0]
 8004a80:	43db      	mvns	r3, r3
 8004a82:	401a      	ands	r2, r3
 8004a84:	693b      	ldr	r3, [r7, #16]
 8004a86:	605a      	str	r2, [r3, #4]
 8004a88:	f7fe fc92 	bl	80033b0 <vTaskSuspendAll>
 8004a8c:	693b      	ldr	r3, [r7, #16]
 8004a8e:	685a      	ldr	r2, [r3, #4]
 8004a90:	4b0a      	ldr	r3, [pc, #40]	; (8004abc <vPortFree+0xbc>)
 8004a92:	681b      	ldr	r3, [r3, #0]
 8004a94:	4413      	add	r3, r2
 8004a96:	4a09      	ldr	r2, [pc, #36]	; (8004abc <vPortFree+0xbc>)
 8004a98:	6013      	str	r3, [r2, #0]
 8004a9a:	6938      	ldr	r0, [r7, #16]
 8004a9c:	f000 f874 	bl	8004b88 <prvInsertBlockIntoFreeList>
 8004aa0:	4b07      	ldr	r3, [pc, #28]	; (8004ac0 <vPortFree+0xc0>)
 8004aa2:	681b      	ldr	r3, [r3, #0]
 8004aa4:	3301      	adds	r3, #1
 8004aa6:	4a06      	ldr	r2, [pc, #24]	; (8004ac0 <vPortFree+0xc0>)
 8004aa8:	6013      	str	r3, [r2, #0]
 8004aaa:	f7fe fc8f 	bl	80033cc <xTaskResumeAll>
 8004aae:	bf00      	nop
 8004ab0:	3718      	adds	r7, #24
 8004ab2:	46bd      	mov	sp, r7
 8004ab4:	bd80      	pop	{r7, pc}
 8004ab6:	bf00      	nop
 8004ab8:	20004938 	.word	0x20004938
 8004abc:	20004928 	.word	0x20004928
 8004ac0:	20004934 	.word	0x20004934

08004ac4 <prvHeapInit>:
 8004ac4:	b480      	push	{r7}
 8004ac6:	b085      	sub	sp, #20
 8004ac8:	af00      	add	r7, sp, #0
 8004aca:	f44f 5370 	mov.w	r3, #15360	; 0x3c00
 8004ace:	60bb      	str	r3, [r7, #8]
 8004ad0:	4b27      	ldr	r3, [pc, #156]	; (8004b70 <prvHeapInit+0xac>)
 8004ad2:	60fb      	str	r3, [r7, #12]
 8004ad4:	68fb      	ldr	r3, [r7, #12]
 8004ad6:	f003 0307 	and.w	r3, r3, #7
 8004ada:	2b00      	cmp	r3, #0
 8004adc:	d00c      	beq.n	8004af8 <prvHeapInit+0x34>
 8004ade:	68fb      	ldr	r3, [r7, #12]
 8004ae0:	3307      	adds	r3, #7
 8004ae2:	60fb      	str	r3, [r7, #12]
 8004ae4:	68fb      	ldr	r3, [r7, #12]
 8004ae6:	f023 0307 	bic.w	r3, r3, #7
 8004aea:	60fb      	str	r3, [r7, #12]
 8004aec:	68ba      	ldr	r2, [r7, #8]
 8004aee:	68fb      	ldr	r3, [r7, #12]
 8004af0:	1ad3      	subs	r3, r2, r3
 8004af2:	4a1f      	ldr	r2, [pc, #124]	; (8004b70 <prvHeapInit+0xac>)
 8004af4:	4413      	add	r3, r2
 8004af6:	60bb      	str	r3, [r7, #8]
 8004af8:	68fb      	ldr	r3, [r7, #12]
 8004afa:	607b      	str	r3, [r7, #4]
 8004afc:	4a1d      	ldr	r2, [pc, #116]	; (8004b74 <prvHeapInit+0xb0>)
 8004afe:	687b      	ldr	r3, [r7, #4]
 8004b00:	6013      	str	r3, [r2, #0]
 8004b02:	4b1c      	ldr	r3, [pc, #112]	; (8004b74 <prvHeapInit+0xb0>)
 8004b04:	2200      	movs	r2, #0
 8004b06:	605a      	str	r2, [r3, #4]
 8004b08:	687b      	ldr	r3, [r7, #4]
 8004b0a:	68ba      	ldr	r2, [r7, #8]
 8004b0c:	4413      	add	r3, r2
 8004b0e:	60fb      	str	r3, [r7, #12]
 8004b10:	2208      	movs	r2, #8
 8004b12:	68fb      	ldr	r3, [r7, #12]
 8004b14:	1a9b      	subs	r3, r3, r2
 8004b16:	60fb      	str	r3, [r7, #12]
 8004b18:	68fb      	ldr	r3, [r7, #12]
 8004b1a:	f023 0307 	bic.w	r3, r3, #7
 8004b1e:	60fb      	str	r3, [r7, #12]
 8004b20:	68fb      	ldr	r3, [r7, #12]
 8004b22:	4a15      	ldr	r2, [pc, #84]	; (8004b78 <prvHeapInit+0xb4>)
 8004b24:	6013      	str	r3, [r2, #0]
 8004b26:	4b14      	ldr	r3, [pc, #80]	; (8004b78 <prvHeapInit+0xb4>)
 8004b28:	681b      	ldr	r3, [r3, #0]
 8004b2a:	2200      	movs	r2, #0
 8004b2c:	605a      	str	r2, [r3, #4]
 8004b2e:	4b12      	ldr	r3, [pc, #72]	; (8004b78 <prvHeapInit+0xb4>)
 8004b30:	681b      	ldr	r3, [r3, #0]
 8004b32:	2200      	movs	r2, #0
 8004b34:	601a      	str	r2, [r3, #0]
 8004b36:	687b      	ldr	r3, [r7, #4]
 8004b38:	603b      	str	r3, [r7, #0]
 8004b3a:	683b      	ldr	r3, [r7, #0]
 8004b3c:	68fa      	ldr	r2, [r7, #12]
 8004b3e:	1ad2      	subs	r2, r2, r3
 8004b40:	683b      	ldr	r3, [r7, #0]
 8004b42:	605a      	str	r2, [r3, #4]
 8004b44:	4b0c      	ldr	r3, [pc, #48]	; (8004b78 <prvHeapInit+0xb4>)
 8004b46:	681a      	ldr	r2, [r3, #0]
 8004b48:	683b      	ldr	r3, [r7, #0]
 8004b4a:	601a      	str	r2, [r3, #0]
 8004b4c:	683b      	ldr	r3, [r7, #0]
 8004b4e:	685b      	ldr	r3, [r3, #4]
 8004b50:	4a0a      	ldr	r2, [pc, #40]	; (8004b7c <prvHeapInit+0xb8>)
 8004b52:	6013      	str	r3, [r2, #0]
 8004b54:	683b      	ldr	r3, [r7, #0]
 8004b56:	685b      	ldr	r3, [r3, #4]
 8004b58:	4a09      	ldr	r2, [pc, #36]	; (8004b80 <prvHeapInit+0xbc>)
 8004b5a:	6013      	str	r3, [r2, #0]
 8004b5c:	4b09      	ldr	r3, [pc, #36]	; (8004b84 <prvHeapInit+0xc0>)
 8004b5e:	f04f 4200 	mov.w	r2, #2147483648	; 0x80000000
 8004b62:	601a      	str	r2, [r3, #0]
 8004b64:	bf00      	nop
 8004b66:	3714      	adds	r7, #20
 8004b68:	46bd      	mov	sp, r7
 8004b6a:	f85d 7b04 	ldr.w	r7, [sp], #4
 8004b6e:	4770      	bx	lr
 8004b70:	20000d1c 	.word	0x20000d1c
 8004b74:	2000491c 	.word	0x2000491c
 8004b78:	20004924 	.word	0x20004924
 8004b7c:	2000492c 	.word	0x2000492c
 8004b80:	20004928 	.word	0x20004928
 8004b84:	20004938 	.word	0x20004938

08004b88 <prvInsertBlockIntoFreeList>:
 8004b88:	b480      	push	{r7}
 8004b8a:	b085      	sub	sp, #20
 8004b8c:	af00      	add	r7, sp, #0
 8004b8e:	6078      	str	r0, [r7, #4]
 8004b90:	4b28      	ldr	r3, [pc, #160]	; (8004c34 <prvInsertBlockIntoFreeList+0xac>)
 8004b92:	60fb      	str	r3, [r7, #12]
 8004b94:	e002      	b.n	8004b9c <prvInsertBlockIntoFreeList+0x14>
 8004b96:	68fb      	ldr	r3, [r7, #12]
 8004b98:	681b      	ldr	r3, [r3, #0]
 8004b9a:	60fb      	str	r3, [r7, #12]
 8004b9c:	68fb      	ldr	r3, [r7, #12]
 8004b9e:	681b      	ldr	r3, [r3, #0]
 8004ba0:	687a      	ldr	r2, [r7, #4]
 8004ba2:	429a      	cmp	r2, r3
 8004ba4:	d8f7      	bhi.n	8004b96 <prvInsertBlockIntoFreeList+0xe>
 8004ba6:	68fb      	ldr	r3, [r7, #12]
 8004ba8:	60bb      	str	r3, [r7, #8]
 8004baa:	68fb      	ldr	r3, [r7, #12]
 8004bac:	685b      	ldr	r3, [r3, #4]
 8004bae:	68ba      	ldr	r2, [r7, #8]
 8004bb0:	4413      	add	r3, r2
 8004bb2:	687a      	ldr	r2, [r7, #4]
 8004bb4:	429a      	cmp	r2, r3
 8004bb6:	d108      	bne.n	8004bca <prvInsertBlockIntoFreeList+0x42>
 8004bb8:	68fb      	ldr	r3, [r7, #12]
 8004bba:	685a      	ldr	r2, [r3, #4]
 8004bbc:	687b      	ldr	r3, [r7, #4]
 8004bbe:	685b      	ldr	r3, [r3, #4]
 8004bc0:	441a      	add	r2, r3
 8004bc2:	68fb      	ldr	r3, [r7, #12]
 8004bc4:	605a      	str	r2, [r3, #4]
 8004bc6:	68fb      	ldr	r3, [r7, #12]
 8004bc8:	607b      	str	r3, [r7, #4]
 8004bca:	687b      	ldr	r3, [r7, #4]
 8004bcc:	60bb      	str	r3, [r7, #8]
 8004bce:	687b      	ldr	r3, [r7, #4]
 8004bd0:	685b      	ldr	r3, [r3, #4]
 8004bd2:	68ba      	ldr	r2, [r7, #8]
 8004bd4:	441a      	add	r2, r3
 8004bd6:	68fb      	ldr	r3, [r7, #12]
 8004bd8:	681b      	ldr	r3, [r3, #0]
 8004bda:	429a      	cmp	r2, r3
 8004bdc:	d118      	bne.n	8004c10 <prvInsertBlockIntoFreeList+0x88>
 8004bde:	68fb      	ldr	r3, [r7, #12]
 8004be0:	681a      	ldr	r2, [r3, #0]
 8004be2:	4b15      	ldr	r3, [pc, #84]	; (8004c38 <prvInsertBlockIntoFreeList+0xb0>)
 8004be4:	681b      	ldr	r3, [r3, #0]
 8004be6:	429a      	cmp	r2, r3
 8004be8:	d00d      	beq.n	8004c06 <prvInsertBlockIntoFreeList+0x7e>
 8004bea:	687b      	ldr	r3, [r7, #4]
 8004bec:	685a      	ldr	r2, [r3, #4]
 8004bee:	68fb      	ldr	r3, [r7, #12]
 8004bf0:	681b      	ldr	r3, [r3, #0]
 8004bf2:	685b      	ldr	r3, [r3, #4]
 8004bf4:	441a      	add	r2, r3
 8004bf6:	687b      	ldr	r3, [r7, #4]
 8004bf8:	605a      	str	r2, [r3, #4]
 8004bfa:	68fb      	ldr	r3, [r7, #12]
 8004bfc:	681b      	ldr	r3, [r3, #0]
 8004bfe:	681a      	ldr	r2, [r3, #0]
 8004c00:	687b      	ldr	r3, [r7, #4]
 8004c02:	601a      	str	r2, [r3, #0]
 8004c04:	e008      	b.n	8004c18 <prvInsertBlockIntoFreeList+0x90>
 8004c06:	4b0c      	ldr	r3, [pc, #48]	; (8004c38 <prvInsertBlockIntoFreeList+0xb0>)
 8004c08:	681a      	ldr	r2, [r3, #0]
 8004c0a:	687b      	ldr	r3, [r7, #4]
 8004c0c:	601a      	str	r2, [r3, #0]
 8004c0e:	e003      	b.n	8004c18 <prvInsertBlockIntoFreeList+0x90>
 8004c10:	68fb      	ldr	r3, [r7, #12]
 8004c12:	681a      	ldr	r2, [r3, #0]
 8004c14:	687b      	ldr	r3, [r7, #4]
 8004c16:	601a      	str	r2, [r3, #0]
 8004c18:	68fa      	ldr	r2, [r7, #12]
 8004c1a:	687b      	ldr	r3, [r7, #4]
 8004c1c:	429a      	cmp	r2, r3
 8004c1e:	d002      	beq.n	8004c26 <prvInsertBlockIntoFreeList+0x9e>
 8004c20:	68fb      	ldr	r3, [r7, #12]
 8004c22:	687a      	ldr	r2, [r7, #4]
 8004c24:	601a      	str	r2, [r3, #0]
 8004c26:	bf00      	nop
 8004c28:	3714      	adds	r7, #20
 8004c2a:	46bd      	mov	sp, r7
 8004c2c:	f85d 7b04 	ldr.w	r7, [sp], #4
 8004c30:	4770      	bx	lr
 8004c32:	bf00      	nop
 8004c34:	2000491c 	.word	0x2000491c
 8004c38:	20004924 	.word	0x20004924

08004c3c <__libc_init_array>:
 8004c3c:	b570      	push	{r4, r5, r6, lr}
 8004c3e:	4d0d      	ldr	r5, [pc, #52]	; (8004c74 <__libc_init_array+0x38>)
 8004c40:	4c0d      	ldr	r4, [pc, #52]	; (8004c78 <__libc_init_array+0x3c>)
 8004c42:	1b64      	subs	r4, r4, r5
 8004c44:	10a4      	asrs	r4, r4, #2
 8004c46:	2600      	movs	r6, #0
 8004c48:	42a6      	cmp	r6, r4
 8004c4a:	d109      	bne.n	8004c60 <__libc_init_array+0x24>
 8004c4c:	4d0b      	ldr	r5, [pc, #44]	; (8004c7c <__libc_init_array+0x40>)
 8004c4e:	4c0c      	ldr	r4, [pc, #48]	; (8004c80 <__libc_init_array+0x44>)
 8004c50:	f000 f82e 	bl	8004cb0 <_init>
 8004c54:	1b64      	subs	r4, r4, r5
 8004c56:	10a4      	asrs	r4, r4, #2
 8004c58:	2600      	movs	r6, #0
 8004c5a:	42a6      	cmp	r6, r4
 8004c5c:	d105      	bne.n	8004c6a <__libc_init_array+0x2e>
 8004c5e:	bd70      	pop	{r4, r5, r6, pc}
 8004c60:	f855 3b04 	ldr.w	r3, [r5], #4
 8004c64:	4798      	blx	r3
 8004c66:	3601      	adds	r6, #1
 8004c68:	e7ee      	b.n	8004c48 <__libc_init_array+0xc>
 8004c6a:	f855 3b04 	ldr.w	r3, [r5], #4
 8004c6e:	4798      	blx	r3
 8004c70:	3601      	adds	r6, #1
 8004c72:	e7f2      	b.n	8004c5a <__libc_init_array+0x1e>
 8004c74:	08004d2c 	.word	0x08004d2c
 8004c78:	08004d2c 	.word	0x08004d2c
 8004c7c:	08004d2c 	.word	0x08004d2c
 8004c80:	08004d30 	.word	0x08004d30

08004c84 <memcpy>:
 8004c84:	440a      	add	r2, r1
 8004c86:	4291      	cmp	r1, r2
 8004c88:	f100 33ff 	add.w	r3, r0, #4294967295
 8004c8c:	d100      	bne.n	8004c90 <memcpy+0xc>
 8004c8e:	4770      	bx	lr
 8004c90:	b510      	push	{r4, lr}
 8004c92:	f811 4b01 	ldrb.w	r4, [r1], #1
 8004c96:	f803 4f01 	strb.w	r4, [r3, #1]!
 8004c9a:	4291      	cmp	r1, r2
 8004c9c:	d1f9      	bne.n	8004c92 <memcpy+0xe>
 8004c9e:	bd10      	pop	{r4, pc}

08004ca0 <memset>:
 8004ca0:	4402      	add	r2, r0
 8004ca2:	4603      	mov	r3, r0
 8004ca4:	4293      	cmp	r3, r2
 8004ca6:	d100      	bne.n	8004caa <memset+0xa>
 8004ca8:	4770      	bx	lr
 8004caa:	f803 1b01 	strb.w	r1, [r3], #1
 8004cae:	e7f9      	b.n	8004ca4 <memset+0x4>

08004cb0 <_init>:
 8004cb0:	b5f8      	push	{r3, r4, r5, r6, r7, lr}
 8004cb2:	bf00      	nop
 8004cb4:	bcf8      	pop	{r3, r4, r5, r6, r7}
 8004cb6:	bc08      	pop	{r3}
 8004cb8:	469e      	mov	lr, r3
 8004cba:	4770      	bx	lr

08004cbc <_fini>:
 8004cbc:	b5f8      	push	{r3, r4, r5, r6, r7, lr}
 8004cbe:	bf00      	nop
 8004cc0:	bcf8      	pop	{r3, r4, r5, r6, r7}
 8004cc2:	bc08      	pop	{r3}
 8004cc4:	469e      	mov	lr, r3
 8004cc6:	4770      	bx	lr
